ccopy_reg
_reconstructor
p0
(chyperopt.base
Trials
p1
c__builtin__
object
p2
Ntp3
Rp4
(dp5
S'attachments'
p6
(dp7
sS'_trials'
p8
(lp9
(dp10
S'refresh_time'
p11
cdatetime
datetime
p12
(S'\x07\xe1\x08\x1f\x13#\x17\x00\xfa\x00'
p13
tp14
Rp15
sS'book_time'
p16
g12
(S'\x07\xe1\x08\x1f\x13#\x02\r\xac\x00'
p17
tp18
Rp19
sS'misc'
p20
(dp21
S'tid'
p22
I0
sS'idxs'
p23
(dp24
S'llr'
p25
(lp26
I0
asS'nh1'
p27
(lp28
I0
asS'eps'
p29
(lp30
I0
asS'nh2'
p31
(lp32
I0
assS'cmd'
p33
(S'domain_attachment'
p34
S'FMinIter_Domain'
p35
tp36
sS'vals'
p37
(dp38
g25
(lp39
F-9.840913684715083
asg27
(lp40
F357.0
asg29
(lp41
F8.0
asg31
(lp42
F218.0
assS'workdir'
p43
NssS'state'
p44
I2
sg22
I0
sS'exp_key'
p45
NsS'version'
p46
I0
sS'result'
p47
(dp48
S'status'
p49
S'ok'
p50
sS'loss'
p51
F0.19660019874572754
sS'eval_time'
p52
F1504208122.944511
ssS'owner'
p53
NsS'spec'
p54
Nsa(dp55
g11
g12
(S'\x07\xe1\x08\x1f\x13#)\r\xe2\xb0'
p56
tp57
Rp58
sg16
g12
(S'\x07\xe1\x08\x1f\x13#\x17\x01\xe0x'
p59
tp60
Rp61
sg20
(dp62
g22
I1
sg23
(dp63
g25
(lp64
I1
asg27
(lp65
I1
asg29
(lp66
I1
asg31
(lp67
I1
assg33
(g34
g35
tp68
sg37
(dp69
g25
(lp70
F-10.203935951635646
asg27
(lp71
F148.0
asg29
(lp72
F16.0
asg31
(lp73
F641.0
assg43
Nssg44
I2
sg22
I1
sg45
Nsg46
I0
sg47
(dp74
g49
g50
sg51
F0.15220022201538086
sg52
F1504208141.790143
ssg53
Nsg54
Nsa(dp75
g11
g12
(S'\x07\xe1\x08\x1f\x13$\x02\x05n\xa0'
p76
tp77
Rp78
sg16
g12
(S'\x07\xe1\x08\x1f\x13#)\x0f*\xd0'
p79
tp80
Rp81
sg20
(dp82
g22
I2
sg23
(dp83
g25
(lp84
I2
asg27
(lp85
I2
asg29
(lp86
I2
asg31
(lp87
I2
assg33
(g34
g35
tp88
sg37
(dp89
g25
(lp90
F-14.187345805489707
asg27
(lp91
F587.0
asg29
(lp92
F15.0
asg31
(lp93
F337.0
assg43
Nssg44
I2
sg22
I2
sg45
Nsg46
I0
sg47
(dp94
g49
g50
sg51
F0.8858000040054321
sg52
F1504208162.252741
ssg53
Nsg54
Nsa(dp95
g11
g12
(S'\x07\xe1\x08\x1f\x13$\x08\x0c1\x18'
p96
tp97
Rp98
sg16
g12
(S'\x07\xe1\x08\x1f\x13$\x02\x06\xb6\xc0'
p99
tp100
Rp101
sg20
(dp102
g22
I3
sg23
(dp103
g25
(lp104
I3
asg27
(lp105
I3
asg29
(lp106
I3
asg31
(lp107
I3
assg33
(g34
g35
tp108
sg37
(dp109
g25
(lp110
F-18.37842998069118
asg27
(lp111
F424.0
asg29
(lp112
F5.0
asg31
(lp113
F769.0
assg43
Nssg44
I2
sg22
I3
sg45
Nsg46
I0
sg47
(dp114
g49
g50
sg51
F0.8848000019788742
sg52
F1504208168.79424
ssg53
Nsg54
Nsa(dp115
g11
g12
(S'\x07\xe1\x08\x1f\x13$\x1a\x0eP\x10'
p116
tp117
Rp118
sg16
g12
(S'\x07\xe1\x08\x1f\x13$\x08\x0c@\xb8'
p119
tp120
Rp121
sg20
(dp122
g22
I4
sg23
(dp123
g25
(lp124
I4
asg27
(lp125
I4
asg29
(lp126
I4
asg31
(lp127
I4
assg33
(g34
g35
tp128
sg37
(dp129
g25
(lp130
F-0.3299872045144667
asg27
(lp131
F334.0
asg29
(lp132
F16.0
asg31
(lp133
F595.0
assg43
Nssg44
I2
sg22
I4
sg45
Nsg46
I0
sg47
(dp134
g49
g50
sg51
F0.8930000066757202
sg52
F1504208186.93252
ssg53
Nsg54
Nsa(dp135
g11
g12
(S'\x07\xe1\x08\x1f\x13$$\x0eoP'
p136
tp137
Rp138
sg16
g12
(S'\x07\xe1\x08\x1f\x13$\x1a\x0e[\xc8'
p139
tp140
Rp141
sg20
(dp142
g22
I5
sg23
(dp143
g25
(lp144
I5
asg27
(lp145
I5
asg29
(lp146
I5
asg31
(lp147
I5
assg33
(g34
g35
tp148
sg37
(dp149
g25
(lp150
F-15.145077608855134
asg27
(lp151
F63.0
asg29
(lp152
F9.0
asg31
(lp153
F730.0
assg43
Nssg44
I2
sg22
I5
sg45
Nsg46
I0
sg47
(dp154
g49
g50
sg51
F0.855200007557869
sg52
F1504208196.938762
ssg53
Nsg54
Nsa(dp155
g11
g12
(S'\x07\xe1\x08\x1f\x13$,\x01O\xf0'
p156
tp157
Rp158
sg16
g12
(S'\x07\xe1\x08\x1f\x13$$\x0e{\x08'
p159
tp160
Rp161
sg20
(dp162
g22
I6
sg23
(dp163
g25
(lp164
I6
asg27
(lp165
I6
asg29
(lp166
I6
asg31
(lp167
I6
assg33
(g34
g35
tp168
sg37
(dp169
g25
(lp170
F-16.806113837245476
asg27
(lp171
F441.0
asg29
(lp172
F6.0
asg31
(lp173
F87.0
assg43
Nssg44
I2
sg22
I6
sg45
Nsg46
I0
sg47
(dp174
g49
g50
sg51
F0.9149999991059303
sg52
F1504208204.075714
ssg53
Nsg54
Nsa(dp175
g11
g12
(S'\x07\xe1\x08\x1f\x13$;\x0c\xd5('
p176
tp177
Rp178
sg16
g12
(S'\x07\xe1\x08\x1f\x13$,\x01cx'
p179
tp180
Rp181
sg20
(dp182
g22
I7
sg23
(dp183
g25
(lp184
I7
asg27
(lp185
I7
asg29
(lp186
I7
asg31
(lp187
I7
assg33
(g34
g35
tp188
sg37
(dp189
g25
(lp190
F-13.734044709692952
asg27
(lp191
F19.0
asg29
(lp192
F15.0
asg31
(lp193
F644.0
assg43
Nssg44
I2
sg22
I7
sg45
Nsg46
I0
sg47
(dp194
g49
g50
sg51
F0.8590000122785568
sg52
F1504208219.833112
ssg53
Nsg54
Nsa(dp195
g11
g12
(S'\x07\xe1\x08\x1f\x13%\x0c\x06\x9bh'
p196
tp197
Rp198
sg16
g12
(S'\x07\xe1\x08\x1f\x13$;\x0c\xe4\xc8'
p199
tp200
Rp201
sg20
(dp202
g22
I8
sg23
(dp203
g25
(lp204
I8
asg27
(lp205
I8
asg29
(lp206
I8
asg31
(lp207
I8
assg33
(g34
g35
tp208
sg37
(dp209
g25
(lp210
F-14.16966009049986
asg27
(lp211
F672.0
asg29
(lp212
F11.0
asg31
(lp213
F129.0
assg43
Nssg44
I2
sg22
I8
sg45
Nsg46
I0
sg47
(dp214
g49
g50
sg51
F0.8878000006079674
sg52
F1504208232.415188
ssg53
Nsg54
Nsa(dp215
g11
g12
(S'\x07\xe1\x08\x1f\x13%\x13\x07\xcc\x18'
p216
tp217
Rp218
sg16
g12
(S'\x07\xe1\x08\x1f\x13%\x0c\x06\xb2\xd8'
p219
tp220
Rp221
sg20
(dp222
g22
I9
sg23
(dp223
g25
(lp224
I9
asg27
(lp225
I9
asg29
(lp226
I9
asg31
(lp227
I9
assg33
(g34
g35
tp228
sg37
(dp229
g25
(lp230
F-9.43659492002322
asg27
(lp231
F356.0
asg29
(lp232
F6.0
asg31
(lp233
F390.0
assg43
Nssg44
I2
sg22
I9
sg45
Nsg46
I0
sg47
(dp234
g49
g50
sg51
F0.16880017518997192
sg52
F1504208239.499472
ssg53
Nsg54
Nsa(dp235
g11
g12
(S'\x07\xe1\x08\x1f\x13%*\x05\x9d\x80'
p236
tp237
Rp238
sg16
g12
(S'\x07\xe1\x08\x1f\x13%\x13\x07\xd7\xd0'
p239
tp240
Rp241
sg20
(dp242
g22
I10
sg23
(dp243
g25
(lp244
I10
asg27
(lp245
I10
asg29
(lp246
I10
asg31
(lp247
I10
assg33
(g34
g35
tp248
sg37
(dp249
g25
(lp250
F-16.070431807577563
asg27
(lp251
F340.0
asg29
(lp252
F20.0
asg31
(lp253
F683.0
assg43
Nssg44
I2
sg22
I10
sg45
Nsg46
I0
sg47
(dp254
g49
g50
sg51
F0.9050000011920929
sg52
F1504208262.349721
ssg53
Nsg54
Nsa(dp255
g11
g12
(S'\x07\xe1\x08\x1f\x13%:\x0b\x04P'
p256
tp257
Rp258
sg16
g12
(S'\x07\xe1\x08\x1f\x13%*\x05\xad '
p259
tp260
Rp261
sg20
(dp262
g22
I11
sg23
(dp263
g25
(lp264
I11
asg27
(lp265
I11
asg29
(lp266
I11
asg31
(lp267
I11
assg33
(g34
g35
tp268
sg37
(dp269
g25
(lp270
F-1.8250234217246266
asg27
(lp271
F57.0
asg29
(lp272
F14.0
asg31
(lp273
F598.0
assg43
Nssg44
I2
sg22
I11
sg45
Nsg46
I0
sg47
(dp274
g49
g50
sg51
F0.8900000005960464
sg52
F1504208278.710243
ssg53
Nsg54
Nsa(dp275
g11
g12
(S'\x07\xe1\x08\x1f\x13&\t\n\xb2H'
p276
tp277
Rp278
sg16
g12
(S'\x07\xe1\x08\x1f\x13%:\x0b\x1b\xc0'
p279
tp280
Rp281
sg20
(dp282
g22
I12
sg23
(dp283
g25
(lp284
I12
asg27
(lp285
I12
asg29
(lp286
I12
asg31
(lp287
I12
assg33
(g34
g35
tp288
sg37
(dp289
g25
(lp290
F-7.229910667228232
asg27
(lp291
F363.0
asg29
(lp292
F9.0
asg31
(lp293
F505.0
assg43
Nssg44
I2
sg22
I12
sg45
Nsg46
I0
sg47
(dp294
g49
g50
sg51
F0.05800020694732666
sg52
F1504208289.688973
ssg53
Nsg54
Nsa(dp295
g11
g12
(S'\x07\xe1\x08\x1f\x13&\x18\x0eP\x10'
p296
tp297
Rp298
sg16
g12
(S'\x07\xe1\x08\x1f\x13&\t\n\xc9\xb8'
p299
tp300
Rp301
sg20
(dp302
g22
I13
sg23
(dp303
g25
(lp304
I13
asg27
(lp305
I13
asg29
(lp306
I13
asg31
(lp307
I13
assg33
(g34
g35
tp308
sg37
(dp309
g25
(lp310
F-18.002452912532124
asg27
(lp311
F204.0
asg29
(lp312
F12.0
asg31
(lp313
F727.0
assg43
Nssg44
I2
sg22
I13
sg45
Nsg46
I0
sg47
(dp314
g49
g50
sg51
F0.9290000051259995
sg52
F1504208304.921064
ssg53
Nsg54
Nsa(dp315
g11
g12
(S'\x07\xe1\x08\x1f\x13&.\t\x0ch'
p316
tp317
Rp318
sg16
g12
(S'\x07\xe1\x08\x1f\x13&\x18\x0e[\xc8'
p319
tp320
Rp321
sg20
(dp322
g22
I14
sg23
(dp323
g25
(lp324
I14
asg27
(lp325
I14
asg29
(lp326
I14
asg31
(lp327
I14
assg33
(g34
g35
tp328
sg37
(dp329
g25
(lp330
F-16.96474480511664
asg27
(lp331
F524.0
asg29
(lp332
F17.0
asg31
(lp333
F23.0
assg43
Nssg44
I2
sg22
I14
sg45
Nsg46
I0
sg47
(dp334
g49
g50
sg51
F0.9228000044822693
sg52
F1504208326.5744
ssg53
Nsg54
Nsa(dp335
g11
g12
(S'\x07\xe1\x08\x1f\x13&8\x04\xe2\x00'
p336
tp337
Rp338
sg16
g12
(S'\x07\xe1\x08\x1f\x13&.\t\x1f\xf0'
p339
tp340
Rp341
sg20
(dp342
g22
I15
sg23
(dp343
g25
(lp344
I15
asg27
(lp345
I15
asg29
(lp346
I15
asg31
(lp347
I15
assg33
(g34
g35
tp348
sg37
(dp349
g25
(lp350
F-1.891062802468042
asg27
(lp351
F363.0
asg29
(lp352
F7.0
asg31
(lp353
F773.0
assg43
Nssg44
I2
sg22
I15
sg45
Nsg46
I0
sg47
(dp354
g49
g50
sg51
F0.8874000087380409
sg52
F1504208336.299225
ssg53
Nsg54
Nsa(dp355
g11
g12
(S"\x07\xe1\x08\x1f\x13'\x0c\x03~\x88"
p356
tp357
Rp358
sg16
g12
(S'\x07\xe1\x08\x1f\x13&8\x04\xed\xb8'
p359
tp360
Rp361
sg20
(dp362
g22
I16
sg23
(dp363
g25
(lp364
I16
asg27
(lp365
I16
asg29
(lp366
I16
asg31
(lp367
I16
assg33
(g34
g35
tp368
sg37
(dp369
g25
(lp370
F-17.343467659426686
asg27
(lp371
F683.0
asg29
(lp372
F11.0
asg31
(lp373
F472.0
assg43
Nssg44
I2
sg22
I16
sg45
Nsg46
I0
sg47
(dp374
g49
g50
sg51
F0.9003999978303909
sg52
F1504208352.203249
ssg53
Nsg54
Nsa(dp375
g11
g12
(S"\x07\xe1\x08\x1f\x13' \x06MH"
p376
tp377
Rp378
sg16
g12
(S"\x07\xe1\x08\x1f\x13'\x0c\x03\xadh"
p379
tp380
Rp381
sg20
(dp382
g22
I17
sg23
(dp383
g25
(lp384
I17
asg27
(lp385
I17
asg29
(lp386
I17
asg31
(lp387
I17
assg33
(g34
g35
tp388
sg37
(dp389
g25
(lp390
F-14.695822043995538
asg27
(lp391
F226.0
asg29
(lp392
F16.0
asg31
(lp393
F698.0
assg43
Nssg44
I2
sg22
I17
sg45
Nsg46
I0
sg47
(dp394
g49
g50
sg51
F0.8822000101208687
sg52
F1504208372.390843
ssg53
Nsg54
Nsa(dp395
g11
g12
(S"\x07\xe1\x08\x1f\x13'6\x07\x08\xc8"
p396
tp397
Rp398
sg16
g12
(S"\x07\xe1\x08\x1f\x13' \x06Y\x00"
p399
tp400
Rp401
sg20
(dp402
g22
I18
sg23
(dp403
g25
(lp404
I18
asg27
(lp405
I18
asg29
(lp406
I18
asg31
(lp407
I18
assg33
(g34
g35
tp408
sg37
(dp409
g25
(lp410
F-0.7662872635998319
asg27
(lp411
F261.0
asg29
(lp412
F18.0
asg31
(lp413
F226.0
assg43
Nssg44
I2
sg22
I18
sg45
Nsg46
I0
sg47
(dp414
g49
g50
sg51
F0.9070000052452087
sg52
F1504208394.439128
ssg53
Nsg54
Nsa(dp415
g11
g12
(S'\x07\xe1\x08\x1f\x13(\x07\x0f*\xd0'
p416
tp417
Rp418
sg16
g12
(S"\x07\xe1\x08\x1f\x13'6\r+\x18"
p419
tp420
Rp421
sg20
(dp422
g22
I19
sg23
(dp423
g25
(lp424
I19
asg27
(lp425
I19
asg29
(lp426
I19
asg31
(lp427
I19
assg33
(g34
g35
tp428
sg37
(dp429
g25
(lp430
F-5.527865024264926
asg27
(lp431
F71.0
asg29
(lp432
F10.0
asg31
(lp433
F354.0
assg43
Nssg44
I2
sg22
I19
sg45
Nsg46
I0
sg47
(dp434
g49
g50
sg51
F0.058000266551971436
sg52
F1504208407.969755
ssg53
Nsg54
Nsa(dp435
g11
g12
(S'\x07\xe1\x08\x1f\x13(\x14\x07+\xf0'
p436
tp437
Rp438
sg16
g12
(S'\x07\xe1\x08\x1f\x13(\x08\x01\xc18'
p439
tp440
Rp441
sg20
(dp442
g22
I20
sg23
(dp443
g25
(lp444
I20
asg27
(lp445
I20
asg29
(lp446
I20
asg31
(lp447
I20
assg33
(g34
g35
tp448
sg37
(dp449
g25
(lp450
F-6.283041557984561
asg27
(lp451
F782.0
asg29
(lp452
F9.0
asg31
(lp453
F478.0
assg43
Nssg44
I2
sg22
I20
sg45
Nsg46
I0
sg47
(dp454
g49
g50
sg51
F0.03280031681060791
sg52
F1504208420.441248
ssg53
Nsg54
Nsa(dp455
g11
g12
(S'\x07\xe1\x08\x1f\x13( \rN@'
p456
tp457
Rp458
sg16
g12
(S'\x07\xe1\x08\x1f\x13(\x14\x07V\xe8'
p459
tp460
Rp461
sg20
(dp462
g22
I21
sg23
(dp463
g25
(lp464
I21
asg27
(lp465
I21
asg29
(lp466
I21
asg31
(lp467
I21
assg33
(g34
g35
tp468
sg37
(dp469
g25
(lp470
F-5.8909755023172785
asg27
(lp471
F780.0
asg29
(lp472
F9.0
asg31
(lp473
F475.0
assg43
Nssg44
I2
sg22
I21
sg45
Nsg46
I0
sg47
(dp474
g49
g50
sg51
F0.030600309371948242
sg52
F1504208432.829995
ssg53
Nsg54
Nsa(dp475
g11
g12
(S'\x07\xe1\x08\x1f\x13(4\x02i0'
p476
tp477
Rp478
sg16
g12
(S'\x07\xe1\x08\x1f\x13( \r\x9c`'
p479
tp480
Rp481
sg20
(dp482
g22
I22
sg23
(dp483
g25
(lp484
I22
asg27
(lp485
I22
asg29
(lp486
I22
asg31
(lp487
I22
assg33
(g34
g35
tp488
sg37
(dp489
g25
(lp490
F-4.455880288776523
asg27
(lp491
F746.0
asg29
(lp492
F13.0
asg31
(lp493
F462.0
assg43
Nssg44
I2
sg22
I22
sg45
Nsg46
I0
sg47
(dp494
g49
g50
sg51
F0.03300023078918457
sg52
F1504208452.126352
ssg53
Nsg54
Nsa(dp495
g11
g12
(S'\x07\xe1\x08\x1f\x13)\x05\x04A\xd8'
p496
tp497
Rp498
sg16
g12
(S'\x07\xe1\x08\x1f\x13(4\x02\x98\x10'
p499
tp500
Rp501
sg20
(dp502
g22
I23
sg23
(dp503
g25
(lp504
I23
asg27
(lp505
I23
asg29
(lp506
I23
asg31
(lp507
I23
assg33
(g34
g35
tp508
sg37
(dp509
g25
(lp510
F-7.357057557954061
asg27
(lp511
F783.0
asg29
(lp512
F8.0
asg31
(lp513
F538.0
assg43
Nssg44
I2
sg22
I23
sg45
Nsg46
I0
sg47
(dp514
g49
g50
sg51
F0.05280029773712158
sg52
F1504208465.247943
ssg53
Nsg54
Nsa(dp515
g11
g12
(S'\x07\xe1\x08\x1f\x13)\x0c\x07\xa1 '
p516
tp517
Rp518
sg16
g12
(S'\x07\xe1\x08\x1f\x13)\x05\x04t\xa0'
p519
tp520
Rp521
sg20
(dp522
g22
I24
sg23
(dp523
g25
(lp524
I24
asg27
(lp525
I24
asg29
(lp526
I24
asg31
(lp527
I24
assg33
(g34
g35
tp528
sg37
(dp529
g25
(lp530
F-11.480056385366751
asg27
(lp531
F587.0
asg29
(lp532
F5.0
asg31
(lp533
F274.0
assg43
Nssg44
I2
sg22
I24
sg45
Nsg46
I0
sg47
(dp534
g49
g50
sg51
F0.6608000099658966
sg52
F1504208472.46656
ssg53
Nsg54
Nsa(dp535
g11
g12
(S'\x07\xe1\x08\x1f\x13)\x19\r\x81\x08'
p536
tp537
Rp538
sg16
g12
(S'\x07\xe1\x08\x1f\x13)\x0c\x07\xd0\x00'
p539
tp540
Rp541
sg20
(dp542
g22
I25
sg23
(dp543
g25
(lp544
I25
asg27
(lp545
I25
asg29
(lp546
I25
asg31
(lp547
I25
assg33
(g34
g35
tp548
sg37
(dp549
g25
(lp550
F-4.2471834845184695
asg27
(lp551
F782.0
asg29
(lp552
F10.0
asg31
(lp553
F438.0
assg43
Nssg44
I2
sg22
I25
sg45
Nsg46
I0
sg47
(dp554
g49
g50
sg51
F0.05120021104812622
sg52
F1504208485.848314
ssg53
Nsg54
Nsa(dp555
g11
g12
(S'\x07\xe1\x08\x1f\x13),\x02x\xd0'
p556
tp557
Rp558
sg16
g12
(S'\x07\xe1\x08\x1f\x13)\x19\r\xb3\xd0'
p559
tp560
Rp561
sg20
(dp562
g22
I26
sg23
(dp563
g25
(lp564
I26
asg27
(lp565
I26
asg29
(lp566
I26
asg31
(lp567
I26
assg33
(g34
g35
tp568
sg37
(dp569
g25
(lp570
F-6.878306250721766
asg27
(lp571
F705.0
asg29
(lp572
F12.0
asg31
(lp573
F567.0
assg43
Nssg44
I2
sg22
I26
sg45
Nsg46
I0
sg47
(dp574
g49
g50
sg51
F0.04200023412704468
sg52
F1504208504.124416
ssg53
Nsg54
Nsa(dp575
g11
g12
(S"\x07\xe1\x08\x1f\x13)7\x0b'x"
p576
tp577
Rp578
sg16
g12
(S'\x07\xe1\x08\x1f\x13),\x02\xab\x98'
p579
tp580
Rp581
sg20
(dp582
g22
I27
sg23
(dp583
g25
(lp584
I27
asg27
(lp585
I27
asg29
(lp586
I27
asg31
(lp587
I27
assg33
(g34
g35
tp588
sg37
(dp589
g25
(lp590
F-12.051950315069783
asg27
(lp591
F619.0
asg29
(lp592
F7.0
asg31
(lp593
F410.0
assg43
Nssg44
I2
sg22
I27
sg45
Nsg46
I0
sg47
(dp594
g49
g50
sg51
F0.6304000616073608
sg52
F1504208515.691319
ssg53
Nsg54
Nsa(dp595
g11
g12
(S'\x07\xe1\x08\x1f\x13*\x08\x04\x16\xe0'
p596
tp597
Rp598
sg16
g12
(S'\x07\xe1\x08\x1f\x13)7\x0b\x858'
p599
tp600
Rp601
sg20
(dp602
g22
I28
sg23
(dp603
g25
(lp604
I28
asg27
(lp605
I28
asg29
(lp606
I28
asg31
(lp607
I28
assg33
(g34
g35
tp608
sg37
(dp609
g25
(lp610
F-3.358752818598063
asg27
(lp611
F496.0
asg29
(lp612
F8.0
asg31
(lp613
F351.0
assg43
Nssg44
I2
sg22
I28
sg45
Nsg46
I0
sg47
(dp614
g49
g50
sg51
F0.13000023365020752
sg52
F1504208528.226456
ssg53
Nsg54
Nsa(dp615
g11
g12
(S'\x07\xe1\x08\x1f\x13*\x16\x02\x8cX'
p616
tp617
Rp618
sg16
g12
(S'\x07\xe1\x08\x1f\x13*\x08\x04\x97\xc8'
p619
tp620
Rp621
sg20
(dp622
g22
I29
sg23
(dp623
g25
(lp624
I29
asg27
(lp625
I29
asg29
(lp626
I29
asg31
(lp627
I29
assg33
(g34
g35
tp628
sg37
(dp629
g25
(lp630
F-8.225196782216171
asg27
(lp631
F753.0
asg29
(lp632
F10.0
asg31
(lp633
F286.0
assg43
Nssg44
I2
sg22
I29
sg45
Nsg46
I0
sg47
(dp634
g49
g50
sg51
F0.07200026512145996
sg52
F1504208542.125957
ssg53
Nsg54
Nsa(dp635
g11
g12
(S'\x07\xe1\x08\x1f\x13*)\x0f#\x00'
p636
tp637
Rp638
sg16
g12
(S'\x07\xe1\x08\x1f\x13*\x16\x02\xc3\x08'
p639
tp640
Rp641
sg20
(dp642
g22
I30
sg23
(dp643
g25
(lp644
I30
asg27
(lp645
I30
asg29
(lp646
I30
asg31
(lp647
I30
assg33
(g34
g35
tp648
sg37
(dp649
g25
(lp650
F-5.731436110721806
asg27
(lp651
F628.0
asg29
(lp652
F13.0
asg31
(lp653
F527.0
assg43
Nssg44
I2
sg22
I30
sg45
Nsg46
I0
sg47
(dp654
g49
g50
sg51
F0.032400310039520264
sg52
F1504208561.946756
ssg53
Nsg54
Nsa(dp655
g11
g12
(S'\x07\xe1\x08\x1f\x13+\x03\x00\xb3\xb0'
p656
tp657
Rp658
sg16
g12
(S'\x07\xe1\x08\x1f\x13**\x00\x17p'
p659
tp660
Rp661
sg20
(dp662
g22
I31
sg23
(dp663
g25
(lp664
I31
asg27
(lp665
I31
asg29
(lp666
I31
asg31
(lp667
I31
assg33
(g34
g35
tp668
sg37
(dp669
g25
(lp670
F-2.919247509263268
asg27
(lp671
F630.0
asg29
(lp672
F13.0
asg31
(lp673
F523.0
assg43
Nssg44
I2
sg22
I31
sg45
Nsg46
I0
sg47
(dp674
g49
g50
sg51
F0.8874000087380409
sg52
F1504208582.999581
ssg53
Nsg54
Nsa(dp675
g11
g12
(S'\x07\xe1\x08\x1f\x13+#\x04\x1e\xb0'
p676
tp677
Rp678
sg16
g12
(S'\x07\xe1\x08\x1f\x13+\x03\x01\x11p'
p679
tp680
Rp681
sg20
(dp682
g22
I32
sg23
(dp683
g25
(lp684
I32
asg27
(lp685
I32
asg29
(lp686
I32
asg31
(lp687
I32
assg33
(g34
g35
tp688
sg37
(dp689
g25
(lp690
F-10.325809882200954
asg27
(lp691
F539.0
asg29
(lp692
F19.0
asg31
(lp693
F656.0
assg43
Nssg44
I2
sg22
I32
sg45
Nsg46
I0
sg47
(dp694
g49
g50
sg51
F0.11060017347335815
sg52
F1504208615.224192
ssg53
Nsg54
Nsa(dp695
g11
g12
(S'\x07\xe1\x08\x1f\x13+7\r\xeeh'
p696
tp697
Rp698
sg16
g12
(S'\x07\xe1\x08\x1f\x13+#\x04\x97\xc8'
p699
tp700
Rp701
sg20
(dp702
g22
I33
sg23
(dp703
g25
(lp704
I33
asg27
(lp705
I33
asg29
(lp706
I33
asg31
(lp707
I33
assg33
(g34
g35
tp708
sg37
(dp709
g25
(lp710
F-5.317973159772719
asg27
(lp711
F452.0
asg29
(lp712
F14.0
asg31
(lp713
F597.0
assg43
Nssg44
I2
sg22
I33
sg45
Nsg46
I0
sg47
(dp714
g49
g50
sg51
F0.03320026397705078
sg52
F1504208635.855661
ssg53
Nsg54
Nsa(dp715
g11
g12
(S'\x07\xe1\x08\x1f\x13,\x0b\x00\x1bX'
p716
tp717
Rp718
sg16
g12
(S'\x07\xe1\x08\x1f\x13+7\x0e%\x18'
p719
tp720
Rp721
sg20
(dp722
g22
I34
sg23
(dp723
g25
(lp724
I34
asg27
(lp725
I34
asg29
(lp726
I34
asg31
(lp727
I34
assg33
(g34
g35
tp728
sg37
(dp729
g25
(lp730
F-8.498840200545906
asg27
(lp731
F722.0
asg29
(lp732
F11.0
asg31
(lp733
F171.0
assg43
Nssg44
I2
sg22
I34
sg45
Nsg46
I0
sg47
(dp734
g49
g50
sg51
F0.07720029354095459
sg52
F1504208650.954659
ssg53
Nsg54
Nsa(dp735
g11
g12
(S'\x07\xe1\x08\x1f\x13,\x1d\x07\x00\xf8'
p736
tp737
Rp738
sg16
g12
(S'\x07\xe1\x08\x1f\x13,\x0b\x00R\x08'
p739
tp740
Rp741
sg20
(dp742
g22
I35
sg23
(dp743
g25
(lp744
I35
asg27
(lp745
I35
asg29
(lp746
I35
asg31
(lp747
I35
assg33
(g34
g35
tp748
sg37
(dp749
g25
(lp750
F-10.83564482644632
asg27
(lp751
F566.0
asg29
(lp752
F14.0
asg31
(lp753
F395.0
assg43
Nssg44
I2
sg22
I35
sg45
Nsg46
I0
sg47
(dp754
g49
g50
sg51
F0.1786002516746521
sg52
F1504208669.40805
ssg53
Nsg54
Nsa(dp755
g11
g12
(S'\x07\xe1\x08\x1f\x13,3\x03\x05p'
p756
tp757
Rp758
sg16
g12
(S'\x07\xe1\x08\x1f\x13,\x1d\x07;\x90'
p759
tp760
Rp761
sg20
(dp762
g22
I36
sg23
(dp763
g25
(lp764
I36
asg27
(lp765
I36
asg29
(lp766
I36
asg31
(lp767
I36
assg33
(g34
g35
tp768
sg37
(dp769
g25
(lp770
F-12.660814279596234
asg27
(lp771
F644.0
asg29
(lp772
F15.0
asg31
(lp773
F322.0
assg43
Nssg44
I2
sg22
I36
sg45
Nsg46
I0
sg47
(dp774
g49
g50
sg51
F0.6122000515460968
sg52
F1504208691.124406
ssg53
Nsg54
Nsa(dp775
g11
g12
(S'\x07\xe1\x08\x1f\x13-\t\t\x1c\x08'
p776
tp777
Rp778
sg16
g12
(S'\x07\xe1\x08\x1f\x13,3\x03Wx'
p779
tp780
Rp781
sg20
(dp782
g22
I37
sg23
(dp783
g25
(lp784
I37
asg27
(lp785
I37
asg29
(lp786
I37
asg31
(lp787
I37
assg33
(g34
g35
tp788
sg37
(dp789
g25
(lp790
F-8.012939213995054
asg27
(lp791
F496.0
asg29
(lp792
F12.0
asg31
(lp793
F612.0
assg43
Nssg44
I2
sg22
I37
sg45
Nsg46
I0
sg47
(dp794
g49
g50
sg51
F0.06460022926330566
sg52
F1504208709.535187
ssg53
Nsg54
Nsa(dp795
g11
g12
(S'\x07\xe1\x08\x1f\x13-\x11\x06\x80\x10'
p796
tp797
Rp798
sg16
g12
(S'\x07\xe1\x08\x1f\x13-\t\t\xbc0'
p799
tp800
Rp801
sg20
(dp802
g22
I38
sg23
(dp803
g25
(lp804
I38
asg27
(lp805
I38
asg29
(lp806
I38
asg31
(lp807
I38
assg33
(g34
g35
tp808
sg37
(dp809
g25
(lp810
F-0.0735673631387419
asg27
(lp811
F295.0
asg29
(lp812
F5.0
asg31
(lp813
F548.0
assg43
Nssg44
I2
sg22
I38
sg45
Nsg46
I0
sg47
(dp814
g49
g50
sg51
F0.9042000025510788
sg52
F1504208717.363602
ssg53
Nsg54
Nsa(dp815
g11
g12
(S"\x07\xe1\x08\x1f\x13-'\n\x9a\xd8"
p816
tp817
Rp818
sg16
g12
(S'\x07\xe1\x08\x1f\x13-\x11\x06\xbe\x90'
p819
tp820
Rp821
sg20
(dp822
g22
I39
sg23
(dp823
g25
(lp824
I39
asg27
(lp825
I39
asg29
(lp826
I39
asg31
(lp827
I39
assg33
(g34
g35
tp828
sg37
(dp829
g25
(lp830
F-9.268662771763687
asg27
(lp831
F654.0
asg29
(lp832
F17.0
asg31
(lp833
F428.0
assg43
Nssg44
I2
sg22
I39
sg45
Nsg46
I0
sg47
(dp834
g49
g50
sg51
F0.08080029487609863
sg52
F1504208739.60588
ssg53
Nsg54
Nsa(dp835
g11
g12
(S'\x07\xe1\x08\x1f\x13-3\x06\x03\x10'
p836
tp837
Rp838
sg16
g12
(S"\x07\xe1\x08\x1f\x13-'\x0b\x00h"
p839
tp840
Rp841
sg20
(dp842
g22
I40
sg23
(dp843
g25
(lp844
I40
asg27
(lp845
I40
asg29
(lp846
I40
asg31
(lp847
I40
assg33
(g34
g35
tp848
sg37
(dp849
g25
(lp850
F-5.452843667450293
asg27
(lp851
F409.0
asg29
(lp852
F7.0
asg31
(lp853
F241.0
assg43
Nssg44
I2
sg22
I40
sg45
Nsg46
I0
sg47
(dp854
g49
g50
sg51
F0.03540027141571045
sg52
F1504208751.321906
ssg53
Nsg54
Nsa(dp855
g11
g12
(S'\x07\xe1\x08\x1f\x13.\x04\x010\xb0'
p856
tp857
Rp858
sg16
g12
(S'\x07\xe1\x08\x1f\x13-3\x06A\x90'
p859
tp860
Rp861
sg20
(dp862
g22
I41
sg23
(dp863
g25
(lp864
I41
asg27
(lp865
I41
asg29
(lp866
I41
asg31
(lp867
I41
assg33
(g34
g35
tp868
sg37
(dp869
g25
(lp870
F-1.4923130167587262
asg27
(lp871
F595.0
asg29
(lp872
F9.0
asg31
(lp873
F505.0
assg43
Nssg44
I2
sg22
I41
sg45
Nsg46
I0
sg47
(dp874
g49
g50
sg51
F0.9014000073075294
sg52
F1504208764.01279
ssg53
Nsg54
Nsa(dp875
g11
g12
(S'\x07\xe1\x08\x1f\x13.\x16\t7`'
p876
tp877
Rp878
sg16
g12
(S'\x07\xe1\x08\x1f\x13.\x04\x01kH'
p879
tp880
Rp881
sg20
(dp882
g22
I42
sg23
(dp883
g25
(lp884
I42
asg27
(lp885
I42
asg29
(lp886
I42
asg31
(lp887
I42
assg33
(g34
g35
tp888
sg37
(dp889
g25
(lp890
F-3.054050267759545
asg27
(lp891
F457.0
asg29
(lp892
F13.0
asg31
(lp893
F179.0
assg43
Nssg44
I2
sg22
I42
sg45
Nsg46
I0
sg47
(dp894
g49
g50
sg51
F0.8872000053524971
sg52
F1504208782.527162
ssg53
Nsg54
Nsa(dp895
g11
g12
(S'\x07\xe1\x08\x1f\x13. \r\xf2P'
p896
tp897
Rp898
sg16
g12
(S'\x07\xe1\x08\x1f\x13.\x16\tu\xe0'
p899
tp900
Rp901
sg20
(dp902
g22
I43
sg23
(dp903
g25
(lp904
I43
asg27
(lp905
I43
asg29
(lp906
I43
asg31
(lp907
I43
assg33
(g34
g35
tp908
sg37
(dp909
g25
(lp910
F-3.8783374028507294
asg27
(lp911
F717.0
asg29
(lp912
F6.0
asg31
(lp913
F634.0
assg43
Nssg44
I2
sg22
I43
sg45
Nsg46
I0
sg47
(dp914
g49
g50
sg51
F0.046800315380096436
sg52
F1504208792.831037
ssg53
Nsg54
Nsa(dp915
g11
g12
(S'\x07\xe1\x08\x1f\x13.1\x02\xf9\xb8'
p916
tp917
Rp918
sg16
g12
(S'\x07\xe1\x08\x1f\x13. \x0e0\xd0'
p919
tp920
Rp921
sg20
(dp922
g22
I44
sg23
(dp923
g25
(lp924
I44
asg27
(lp925
I44
asg29
(lp926
I44
asg31
(lp927
I44
assg33
(g34
g35
tp928
sg37
(dp929
g25
(lp930
F-6.203949410536614
asg27
(lp931
F683.0
asg29
(lp932
F11.0
asg31
(lp933
F309.0
assg43
Nssg44
I2
sg22
I44
sg45
Nsg46
I0
sg47
(dp934
g49
g50
sg51
F0.034000277519226074
sg52
F1504208809.116426
ssg53
Nsg54
Nsa(dp935
g11
g12
(S'\x07\xe1\x08\x1f\x13/\n\x08M\x00'
p936
tp937
Rp938
sg16
g12
(S'\x07\xe1\x08\x1f\x13.1\x03< '
p939
tp940
Rp941
sg20
(dp942
g22
I45
sg23
(dp943
g25
(lp944
I45
asg27
(lp945
I45
asg29
(lp946
I45
asg31
(lp947
I45
assg33
(g34
g35
tp948
sg37
(dp949
g25
(lp950
F-2.2386739218747214
asg27
(lp951
F170.0
asg29
(lp952
F16.0
asg31
(lp953
F750.0
assg43
Nssg44
I2
sg22
I45
sg45
Nsg46
I0
sg47
(dp954
g49
g50
sg51
F0.8902000039815903
sg52
F1504208830.411729
ssg53
Nsg54
Nsa(dp955
g11
g12
(S'\x07\xe1\x08\x1f\x13/\x1e\t\xe7('
p956
tp957
Rp958
sg16
g12
(S'\x07\xe1\x08\x1f\x13/\n\x08\x8fh'
p959
tp960
Rp961
sg20
(dp962
g22
I46
sg23
(dp963
g25
(lp964
I46
asg27
(lp965
I46
asg29
(lp966
I46
asg31
(lp967
I46
assg33
(g34
g35
tp968
sg37
(dp969
g25
(lp970
F-13.141503898503224
asg27
(lp971
F544.0
asg29
(lp972
F15.0
asg31
(lp973
F370.0
assg43
Nssg44
I2
sg22
I46
sg45
Nsg46
I0
sg47
(dp974
g49
g50
sg51
F0.756400004029274
sg52
F1504208850.574505
ssg53
Nsg54
Nsa(dp975
g11
g12
(S'\x07\xe1\x08\x1f\x13/8\x03r\xd0'
p976
tp977
Rp978
sg16
g12
(S'\x07\xe1\x08\x1f\x13/\x1e\n\xaax'
p979
tp980
Rp981
sg20
(dp982
g22
I47
sg23
(dp983
g25
(lp984
I47
asg27
(lp985
I47
asg29
(lp986
I47
asg31
(lp987
I47
assg33
(g34
g35
tp988
sg37
(dp989
g25
(lp990
F-4.8690480809889465
asg27
(lp991
F484.0
asg29
(lp992
F20.0
asg31
(lp993
F575.0
assg43
Nssg44
I2
sg22
I47
sg45
Nsg46
I0
sg47
(dp994
g49
g50
sg51
F0.028600335121154785
sg52
F1504208876.125792
ssg53
Nsg54
Nsa(dp995
g11
g12
(S'\x07\xe1\x08\x1f\x130\x13\x08hX'
p996
tp997
Rp998
sg16
g12
(S'\x07\xe1\x08\x1f\x13/8\x03\xbd\x08'
p999
tp1000
Rp1001
sg20
(dp1002
g22
I48
sg23
(dp1003
g25
(lp1004
I48
asg27
(lp1005
I48
asg29
(lp1006
I48
asg31
(lp1007
I48
assg33
(g34
g35
tp1008
sg37
(dp1009
g25
(lp1010
F-0.9450375131105906
asg27
(lp1011
F296.0
asg29
(lp1012
F19.0
asg31
(lp1013
F696.0
assg43
Nssg44
I2
sg22
I48
sg45
Nsg46
I0
sg47
(dp1014
g49
g50
sg51
F0.9024000093340874
sg52
F1504208899.451278
ssg53
Nsg54
Nsa(dp1015
g11
g12
(S'\x07\xe1\x08\x1f\x130-\x01\x1d('
p1016
tp1017
Rp1018
sg16
g12
(S'\x07\xe1\x08\x1f\x130\x13\x08\xb6x'
p1019
tp1020
Rp1021
sg20
(dp1022
g22
I49
sg23
(dp1023
g25
(lp1024
I49
asg27
(lp1025
I49
asg29
(lp1026
I49
asg31
(lp1027
I49
assg33
(g34
g35
tp1028
sg37
(dp1029
g25
(lp1030
F-4.643976861268926
asg27
(lp1031
F108.0
asg29
(lp1032
F20.0
asg31
(lp1033
F32.0
assg43
Nssg44
I2
sg22
I49
sg45
Nsg46
I0
sg47
(dp1034
g49
g50
sg51
F0.04040026664733887
sg52
F1504208924.985366
ssg53
Nsg54
Nsa(dp1035
g11
g12
(S'\x07\xe1\x08\x1f\x1306\x05r\x88'
p1036
tp1037
Rp1038
sg16
g12
(S'\x07\xe1\x08\x1f\x130-\x01\x9a('
p1039
tp1040
Rp1041
sg20
(dp1042
g22
I50
sg23
(dp1043
g25
(lp1044
I50
asg27
(lp1045
I50
asg29
(lp1046
I50
asg31
(lp1047
I50
assg33
(g34
g35
tp1048
sg37
(dp1049
g25
(lp1050
F-9.91307217688447
asg27
(lp1051
F377.0
asg29
(lp1052
F6.0
asg31
(lp1053
F571.0
assg43
Nssg44
I2
sg22
I50
sg45
Nsg46
I0
sg47
(dp1054
g49
g50
sg51
F0.17960017919540405
sg52
F1504208934.193963
ssg53
Nsg54
Nsa(dp1055
g11
g12
(S'\x07\xe1\x08\x1f\x131\x12\r\x0b\xd8'
p1056
tp1057
Rp1058
sg16
g12
(S'\x07\xe1\x08\x1f\x1306\x05\xd8\x18'
p1059
tp1060
Rp1061
sg20
(dp1062
g22
I51
sg23
(dp1063
g25
(lp1064
I51
asg27
(lp1065
I51
asg29
(lp1066
I51
asg31
(lp1067
I51
assg33
(g34
g35
tp1068
sg37
(dp1069
g25
(lp1070
F-2.4577825031098675
asg27
(lp1071
F318.0
asg29
(lp1072
F17.0
asg31
(lp1073
F496.0
assg43
Nssg44
I2
sg22
I51
sg45
Nsg46
I0
sg47
(dp1074
g49
g50
sg51
F0.9012000039219856
sg52
F1504208958.749103
ssg53
Nsg54
Nsa(dp1075
g11
g12
(S'\x07\xe1\x08\x1f\x131\x1f\x08\x12h'
p1076
tp1077
Rp1078
sg16
g12
(S'\x07\xe1\x08\x1f\x131\x12\re\xb0'
p1079
tp1080
Rp1081
sg20
(dp1082
g22
I52
sg23
(dp1083
g25
(lp1084
I52
asg27
(lp1085
I52
asg29
(lp1086
I52
asg31
(lp1087
I52
assg33
(g34
g35
tp1088
sg37
(dp1089
g25
(lp1090
F-15.718125226827238
asg27
(lp1091
F20.0
asg29
(lp1092
F8.0
asg31
(lp1093
F452.0
assg43
Nssg44
I2
sg22
I52
sg45
Nsg46
I0
sg47
(dp1094
g49
g50
sg51
F0.9182000085711479
sg52
F1504208971.435698
ssg53
Nsg54
Nsa(dp1095
g11
g12
(S'\x07\xe1\x08\x1f\x1319\t\x10P'
p1096
tp1097
Rp1098
sg16
g12
(S'\x07\xe1\x08\x1f\x131\x1f\x08X\xb8'
p1099
tp1100
Rp1101
sg20
(dp1102
g22
I53
sg23
(dp1103
g25
(lp1104
I53
asg27
(lp1105
I53
asg29
(lp1106
I53
asg31
(lp1107
I53
assg33
(g34
g35
tp1108
sg37
(dp1109
g25
(lp1110
F-8.756525492828134
asg27
(lp1111
F217.0
asg29
(lp1112
F19.0
asg31
(lp1113
F781.0
assg43
Nssg44
I2
sg22
I53
sg45
Nsg46
I0
sg47
(dp1114
g49
g50
sg51
F0.08040028810501099
sg52
F1504208997.489187
ssg53
Nsg54
Nsa(dp1115
g11
g12
(S'\x07\xe1\x08\x1f\x132\x15\x06\xf5@'
p1116
tp1117
Rp1118
sg16
g12
(S'\x07\xe1\x08\x1f\x1319\t^p'
p1119
tp1120
Rp1121
sg20
(dp1122
g22
I54
sg23
(dp1123
g25
(lp1124
I54
asg27
(lp1125
I54
asg29
(lp1126
I54
asg31
(lp1127
I54
assg33
(g34
g35
tp1128
sg37
(dp1129
g25
(lp1130
F-7.419618402178556
asg27
(lp1131
F502.0
asg29
(lp1132
F18.0
asg31
(lp1133
F674.0
assg43
Nssg44
I2
sg22
I54
sg45
Nsg46
I0
sg47
(dp1134
g49
g50
sg51
F0.045600295066833496
sg52
F1504209021.327779
ssg53
Nsg54
Nsa(dp1135
g11
g12
(S'\x07\xe1\x08\x1f\x132#\x00R\x08'
p1136
tp1137
Rp1138
sg16
g12
(S'\x07\xe1\x08\x1f\x132\x15\x07\xb8\x90'
p1139
tp1140
Rp1141
sg20
(dp1142
g22
I55
sg23
(dp1143
g25
(lp1144
I55
asg27
(lp1145
I55
asg29
(lp1146
I55
asg31
(lp1147
I55
assg33
(g34
g35
tp1148
sg37
(dp1149
g25
(lp1150
F-6.630617926287002
asg27
(lp1151
F251.0
asg29
(lp1152
F10.0
asg31
(lp1153
F712.0
assg43
Nssg44
I2
sg22
I55
sg45
Nsg46
I0
sg47
(dp1154
g49
g50
sg51
F0.048200249671936035
sg52
F1504209034.925691
ssg53
Nsg54
Nsa(dp1155
g11
g12
(S'\x07\xe1\x08\x1f\x133\x01\x08l@'
p1156
tp1157
Rp1158
sg16
g12
(S'\x07\xe1\x08\x1f\x132#\x00\x94p'
p1159
tp1160
Rp1161
sg20
(dp1162
g22
I56
sg23
(dp1163
g25
(lp1164
I56
asg27
(lp1165
I56
asg29
(lp1166
I56
asg31
(lp1167
I56
assg33
(g34
g35
tp1168
sg37
(dp1169
g25
(lp1170
F-4.807694914554679
asg27
(lp1171
F427.0
asg29
(lp1172
F20.0
asg31
(lp1173
F634.0
assg43
Nssg44
I2
sg22
I56
sg45
Nsg46
I0
sg47
(dp1174
g49
g50
sg51
F0.025800347328186035
sg52
F1504209061.357734
ssg53
Nsg54
Nsa(dp1175
g11
g12
(S'\x07\xe1\x08\x1f\x133\x1b\ri\x98'
p1176
tp1177
Rp1178
sg16
g12
(S'\x07\xe1\x08\x1f\x133\x01\n\x19\xf0'
p1179
tp1180
Rp1181
sg20
(dp1182
g22
I57
sg23
(dp1183
g25
(lp1184
I57
asg27
(lp1185
I57
asg29
(lp1186
I57
asg31
(lp1187
I57
assg33
(g34
g35
tp1188
sg37
(dp1189
g25
(lp1190
F-4.913227889273006
asg27
(lp1191
F395.0
asg29
(lp1192
F20.0
asg31
(lp1193
F748.0
assg43
Nssg44
I2
sg22
I57
sg45
Nsg46
I0
sg47
(dp1194
g49
g50
sg51
F0.026000261306762695
sg52
F1504209087.781718
ssg53
Nsg54
Nsa(dp1195
g11
g12
(S'\x07\xe1\x08\x1f\x1332\x0eg\x80'
p1196
tp1197
Rp1198
sg16
g12
(S'\x07\xe1\x08\x1f\x133\x1b\r\xb7\xb8'
p1199
tp1200
Rp1201
sg20
(dp1202
g22
I58
sg23
(dp1203
g25
(lp1204
I58
asg27
(lp1205
I58
asg29
(lp1206
I58
asg31
(lp1207
I58
assg33
(g34
g35
tp1208
sg37
(dp1209
g25
(lp1210
F-1.2839388904559712
asg27
(lp1211
F424.0
asg29
(lp1212
F18.0
asg31
(lp1213
F748.0
assg43
Nssg44
I2
sg22
I58
sg45
Nsg46
I0
sg47
(dp1214
g49
g50
sg51
F0.9024000093340874
sg52
F1504209110.842249
ssg53
Nsg54
Nsa(dp1215
g11
g12
(S'\x07\xe1\x08\x1f\x134\x14\x07/\xd8'
p1216
tp1217
Rp1218
sg16
g12
(S'\x07\xe1\x08\x1f\x1332\x0e\xad\xd0'
p1219
tp1220
Rp1221
sg20
(dp1222
g22
I59
sg23
(dp1223
g25
(lp1224
I59
asg27
(lp1225
I59
asg29
(lp1226
I59
asg31
(lp1227
I59
assg33
(g34
g35
tp1228
sg37
(dp1229
g25
(lp1230
F-3.8537382507070617
asg27
(lp1231
F402.0
asg29
(lp1232
F20.0
asg31
(lp1233
F749.0
assg43
Nssg44
I2
sg22
I59
sg45
Nsg46
I0
sg47
(dp1234
g49
g50
sg51
F0.052200257778167725
sg52
F1504209140.369636
ssg53
Nsg54
Nsa(dp1235
g11
g12
(S'\x07\xe1\x08\x1f\x134/\x04\x97\xc8'
p1236
tp1237
Rp1238
sg16
g12
(S'\x07\xe1\x08\x1f\x134\x14\x07\xdb\xb8'
p1239
tp1240
Rp1241
sg20
(dp1242
g22
I60
sg23
(dp1243
g25
(lp1244
I60
asg27
(lp1245
I60
asg29
(lp1246
I60
asg31
(lp1247
I60
assg33
(g34
g35
tp1248
sg37
(dp1249
g25
(lp1250
F-0.09290490316489386
asg27
(lp1251
F176.0
asg29
(lp1252
F17.0
asg31
(lp1253
F644.0
assg43
Nssg44
I2
sg22
I60
sg45
Nsg46
I0
sg47
(dp1254
g49
g50
sg51
F0.907600000500679
sg52
F1504209167.190752
ssg53
Nsg54
Nsa(dp1255
g11
g12
(S'\x07\xe1\x08\x1f\x135\n\x05\xf7X'
p1256
tp1257
Rp1258
sg16
g12
(S'\x07\xe1\x08\x1f\x134/\x04\xe5\xe8'
p1259
tp1260
Rp1261
sg20
(dp1262
g22
I61
sg23
(dp1263
g25
(lp1264
I61
asg27
(lp1265
I61
asg29
(lp1266
I61
asg31
(lp1267
I61
assg33
(g34
g35
tp1268
sg37
(dp1269
g25
(lp1270
F-10.77742117640231
asg27
(lp1271
F332.0
asg29
(lp1272
F18.0
asg31
(lp1273
F621.0
assg43
Nssg44
I2
sg22
I61
sg45
Nsg46
I0
sg47
(dp1274
g49
g50
sg51
F0.1662001609802246
sg52
F1504209190.28171
ssg53
Nsg54
Nsa(dp1275
g11
g12
(S'\x07\xe1\x08\x1f\x135(\x0e\xe4\x80'
p1276
tp1277
Rp1278
sg16
g12
(S'\x07\xe1\x08\x1f\x135\n\x06Ex'
p1279
tp1280
Rp1281
sg20
(dp1282
g22
I62
sg23
(dp1283
g25
(lp1284
I62
asg27
(lp1285
I62
asg29
(lp1286
I62
asg31
(lp1287
I62
assg33
(g34
g35
tp1288
sg37
(dp1289
g25
(lp1290
F-7.676195363681461
asg27
(lp1291
F264.0
asg29
(lp1292
F19.0
asg31
(lp1293
F781.0
assg43
Nssg44
I2
sg22
I62
sg45
Nsg46
I0
sg47
(dp1294
g49
g50
sg51
F0.056600213050842285
sg52
F1504209220.872783
ssg53
Nsg54
Nsa(dp1295
g11
g12
(S'\x07\xe1\x08\x1f\x136\x04\x02\xde`'
p1296
tp1297
Rp1298
sg16
g12
(S'\x07\xe1\x08\x1f\x135(\x0f6\x88'
p1299
tp1300
Rp1301
sg20
(dp1302
g22
I63
sg23
(dp1303
g25
(lp1304
I63
asg27
(lp1305
I63
asg29
(lp1306
I63
asg31
(lp1307
I63
assg33
(g34
g35
tp1308
sg37
(dp1309
g25
(lp1310
F-3.6897997539044463
asg27
(lp1311
F118.0
asg29
(lp1312
F16.0
asg31
(lp1313
F663.0
assg43
Nssg44
I2
sg22
I63
sg45
Nsg46
I0
sg47
(dp1314
g49
g50
sg51
F0.6228000223636627
sg52
F1504209244.080321
ssg53
Nsg54
Nsa(dp1315
g11
g12
(S'\x07\xe1\x08\x1f\x136%\x02\xee\x00'
p1316
tp1317
Rp1318
sg16
g12
(S'\x07\xe1\x08\x1f\x136\x04\x03(\x98'
p1319
tp1320
Rp1321
sg20
(dp1322
g22
I64
sg23
(dp1323
g25
(lp1324
I64
asg27
(lp1325
I64
asg29
(lp1326
I64
asg31
(lp1327
I64
assg33
(g34
g35
tp1328
sg37
(dp1329
g25
(lp1330
F-6.825005564173553
asg27
(lp1331
F382.0
asg29
(lp1332
F20.0
asg31
(lp1333
F727.0
assg43
Nssg44
I2
sg22
I64
sg45
Nsg46
I0
sg47
(dp1334
g49
g50
sg51
F0.030800282955169678
sg52
F1504209277.08244
ssg53
Nsg54
Nsa(dp1335
g11
g12
(S'\x07\xe1\x08\x1f\x137\x0e\x03\xa1\xb0'
p1336
tp1337
Rp1338
sg16
g12
(S'\x07\xe1\x08\x1f\x136%\x03< '
p1339
tp1340
Rp1341
sg20
(dp1342
g22
I65
sg23
(dp1343
g25
(lp1344
I65
asg27
(lp1345
I65
asg29
(lp1346
I65
asg31
(lp1347
I65
assg33
(g34
g35
tp1348
sg37
(dp1349
g25
(lp1350
F-4.928181774850184
asg27
(lp1351
F470.0
asg29
(lp1352
F20.0
asg31
(lp1353
F582.0
assg43
Nssg44
I2
sg22
I65
sg45
Nsg46
I0
sg47
(dp1354
g49
g50
sg51
F0.02420032024383545
sg52
F1504209314.096544
ssg53
Nsg54
Nsa(dp1355
g11
g12
(S'\x07\xe1\x08\x1f\x137/\x0c\xcdX'
p1356
tp1357
Rp1358
sg16
g12
(S'\x07\xe1\x08\x1f\x137\x0e\x03\xffp'
p1359
tp1360
Rp1361
sg20
(dp1362
g22
I66
sg23
(dp1363
g25
(lp1364
I66
asg27
(lp1365
I66
asg29
(lp1366
I66
asg31
(lp1367
I66
assg33
(g34
g35
tp1368
sg37
(dp1369
g25
(lp1370
F-5.0454220877284595
asg27
(lp1371
F448.0
asg29
(lp1372
F19.0
asg31
(lp1373
F680.0
assg43
Nssg44
I2
sg22
I66
sg45
Nsg46
I0
sg47
(dp1374
g49
g50
sg51
F0.024800360202789307
sg52
F1504209347.720766
ssg53
Nsg54
Nsa(dp1375
g11
g12
(S'\x07\xe1\x08\x1f\x138\x12\x06\xcaH'
p1376
tp1377
Rp1378
sg16
g12
(S'\x07\xe1\x08\x1f\x137/\r\xeeh'
p1379
tp1380
Rp1381
sg20
(dp1382
g22
I67
sg23
(dp1383
g25
(lp1384
I67
asg27
(lp1385
I67
asg29
(lp1386
I67
asg31
(lp1387
I67
assg33
(g34
g35
tp1388
sg37
(dp1389
g25
(lp1390
F-2.5923000395038236
asg27
(lp1391
F474.0
asg29
(lp1392
F18.0
asg31
(lp1393
F695.0
assg43
Nssg44
I2
sg22
I67
sg45
Nsg46
I0
sg47
(dp1394
g49
g50
sg51
F0.886400006711483
sg52
F1504209378.328668
ssg53
Nsg54
Nsa(dp1395
g11
g12
(S'\x07\xe1\x08\x1f\x1385\x0c{P'
p1396
tp1397
Rp1398
sg16
g12
(S'\x07\xe1\x08\x1f\x138\x12\x07\x18h'
p1399
tp1400
Rp1401
sg20
(dp1402
g22
I68
sg23
(dp1403
g25
(lp1404
I68
asg27
(lp1405
I68
asg29
(lp1406
I68
asg31
(lp1407
I68
assg33
(g34
g35
tp1408
sg37
(dp1409
g25
(lp1410
F-8.930414777947416
asg27
(lp1411
F443.0
asg29
(lp1412
F19.0
asg31
(lp1413
F588.0
assg43
Nssg44
I2
sg22
I68
sg45
Nsg46
I0
sg47
(dp1414
g49
g50
sg51
F0.07400035858154297
sg52
F1504209413.581686
ssg53
Nsg54
Nsa(dp1415
g11
g12
(S'\x07\xe1\x08\x1f\x139\x1f\x06\xd9\xe8'
p1416
tp1417
Rp1418
sg16
g12
(S'\x07\xe1\x08\x1f\x1385\x0e!0'
p1419
tp1420
Rp1421
sg20
(dp1422
g22
I69
sg23
(dp1423
g25
(lp1424
I69
asg27
(lp1425
I69
asg29
(lp1426
I69
asg31
(lp1427
I69
assg33
(g34
g35
tp1428
sg37
(dp1429
g25
(lp1430
F-6.1866322902069175
asg27
(lp1431
F518.0
asg29
(lp1432
F16.0
asg31
(lp1433
F559.0
assg43
Nssg44
I2
sg22
I69
sg45
Nsg46
I0
sg47
(dp1434
g49
g50
sg51
F0.031400322914123535
sg52
F1504209451.32822
ssg53
Nsg54
NsasS'_exp_key'
p1435
NsS'_dynamic_trials'
p1436
(lp1437
g10
ag55
ag75
ag95
ag115
ag135
ag155
ag175
ag195
ag215
ag235
ag255
ag275
ag295
ag315
ag335
ag355
ag375
ag395
ag415
ag435
ag455
ag475
ag495
ag515
ag535
ag555
ag575
ag595
ag615
ag635
ag655
ag675
ag695
ag715
ag735
ag755
ag775
ag795
ag815
ag835
ag855
ag875
ag895
ag915
ag935
ag955
ag975
ag995
ag1015
ag1035
ag1055
ag1075
ag1095
ag1115
ag1135
ag1155
ag1175
ag1195
ag1215
ag1235
ag1255
ag1275
ag1295
ag1315
ag1335
ag1355
ag1375
ag1395
ag1415
asS'_ids'
p1438
c__builtin__
set
p1439
((lp1440
I0
aI1
aI2
aI3
aI4
aI5
aI6
aI7
aI8
aI9
aI10
aI11
aI12
aI13
aI14
aI15
aI16
aI17
aI18
aI19
aI20
aI21
aI22
aI23
aI24
aI25
aI26
aI27
aI28
aI29
aI30
aI31
aI32
aI33
aI34
aI35
aI36
aI37
aI38
aI39
aI40
aI41
aI42
aI43
aI44
aI45
aI46
aI47
aI48
aI49
aI50
aI51
aI52
aI53
aI54
aI55
aI56
aI57
aI58
aI59
aI60
aI61
aI62
aI63
aI64
aI65
aI66
aI67
aI68
aI69
atp1441
Rp1442
sb.