ccopy_reg
_reconstructor
p0
(chyperopt.base
Trials
p1
c__builtin__
object
p2
Ntp3
Rp4
(dp5
S'attachments'
p6
(dp7
sS'_trials'
p8
(lp9
(dp10
S'refresh_time'
p11
cdatetime
datetime
p12
(S'\x07\xe1\x08\x1d\x14-%\x03\xd8`'
p13
tp14
Rp15
sS'book_time'
p16
g12
(S'\x07\xe1\x08\x1d\x14-\x07\x08\x87\x98'
p17
tp18
Rp19
sS'misc'
p20
(dp21
S'tid'
p22
I0
sS'idxs'
p23
(dp24
S'llr'
p25
(lp26
I0
asS'nh1'
p27
(lp28
I0
asS'eps'
p29
(lp30
I0
asS'nh2'
p31
(lp32
I0
assS'cmd'
p33
(S'domain_attachment'
p34
S'FMinIter_Domain'
p35
tp36
sS'vals'
p37
(dp38
g25
(lp39
F-5.109124663967863
asg27
(lp40
F575.0
asg29
(lp41
F9.0
asg31
(lp42
F58.0
assS'workdir'
p43
NssS'state'
p44
I2
sg22
I0
sS'exp_key'
p45
NsS'version'
p46
I0
sS'result'
p47
(dp48
S'status'
p49
S'ok'
p50
sS'loss'
p51
F0.7855998277664185
sS'eval_time'
p52
F1504039537.242197
ssS'owner'
p53
NsS'spec'
p54
Nsa(dp55
g11
g12
(S'\x07\xe1\x08\x1d\x14-9\x06\x8b\xc8'
p56
tp57
Rp58
sg16
g12
(S'\x07\xe1\x08\x1d\x14-%\x03\xf7\xa0'
p59
tp60
Rp61
sg20
(dp62
g22
I1
sg23
(dp63
g25
(lp64
I1
asg27
(lp65
I1
asg29
(lp66
I1
asg31
(lp67
I1
assg33
(g34
g35
tp68
sg37
(dp69
g25
(lp70
F-4.130814962742688
asg27
(lp71
F149.0
asg29
(lp72
F7.0
asg31
(lp73
F493.0
assg43
Nssg44
I2
sg22
I1
sg45
Nsg46
I0
sg47
(dp74
g49
g50
sg51
F0.9493998289108276
sg52
F1504039557.419268
ssg53
Nsg54
NsasS'_exp_key'
p75
NsS'_dynamic_trials'
p76
(lp77
g10
ag55
asS'_ids'
p78
c__builtin__
set
p79
((lp80
I0
aI1
atp81
Rp82
sb.