ccopy_reg
_reconstructor
p0
(chyperopt.base
Trials
p1
c__builtin__
object
p2
Ntp3
Rp4
(dp5
S'attachments'
p6
(dp7
sS'_trials'
p8
(lp9
(dp10
S'refresh_time'
p11
cdatetime
datetime
p12
(S'\x07\xe1\x08\x1e\x0e\x1c\x18\n\xaax'
p13
tp14
Rp15
sS'book_time'
p16
g12
(S'\x07\xe1\x08\x1e\x0e\x1c\x01\x02\xc6\xf0'
p17
tp18
Rp19
sS'misc'
p20
(dp21
S'tid'
p22
I0
sS'idxs'
p23
(dp24
S'llr'
p25
(lp26
I0
asS'nh1'
p27
(lp28
I0
asS'eps'
p29
(lp30
I0
asS'nh2'
p31
(lp32
I0
assS'cmd'
p33
(S'domain_attachment'
p34
S'FMinIter_Domain'
p35
tp36
sS'vals'
p37
(dp38
g25
(lp39
F-10.501113093413926
asg27
(lp40
F439.0
asg29
(lp41
F18.0
asg31
(lp42
F27.0
assS'workdir'
p43
NssS'state'
p44
I2
sg22
I0
sS'exp_key'
p45
NsS'version'
p46
I0
sS'result'
p47
(dp48
S'status'
p49
S'ok'
p50
sS'loss'
p51
F0.7497998476028442
sS'eval_time'
p52
F1504103304.696703
ssS'owner'
p53
NsS'spec'
p54
Nsa(dp55
g11
g12
(S'\x07\xe1\x08\x1e\x0e\x1c#\x0b\x0c '
p56
tp57
Rp58
sg16
g12
(S'\x07\xe1\x08\x1e\x0e\x1c\x18\n\xb60'
p59
tp60
Rp61
sg20
(dp62
g22
I1
sg23
(dp63
g25
(lp64
I1
asg27
(lp65
I1
asg29
(lp66
I1
asg31
(lp67
I1
assg33
(g34
g35
tp68
sg37
(dp69
g25
(lp70
F-7.699757753177304
asg27
(lp71
F603.0
asg29
(lp72
F9.0
asg31
(lp73
F259.0
assg43
Nssg44
I2
sg22
I1
sg45
Nsg46
I0
sg47
(dp74
g49
g50
sg51
F0.9371997117996216
sg52
F1504103315.720366
ssg53
Nsg54
Nsa(dp75
g11
g12
(S'\x07\xe1\x08\x1e\x0e\x1c3\x0e!0'
p76
tp77
Rp78
sg16
g12
(S'\x07\xe1\x08\x1e\x0e\x1c#\x0b\x1f\xa8'
p79
tp80
Rp81
sg20
(dp82
g22
I2
sg23
(dp83
g25
(lp84
I2
asg27
(lp85
I2
asg29
(lp86
I2
asg31
(lp87
I2
assg33
(g34
g35
tp88
sg37
(dp89
g25
(lp90
F-15.490372967393908
asg27
(lp91
F290.0
asg29
(lp92
F14.0
asg31
(lp93
F620.0
assg43
Nssg44
I2
sg22
I2
sg45
Nsg46
I0
sg47
(dp94
g49
g50
sg51
F0.10019999742507935
sg52
F1504103331.922275
ssg53
Nsg54
Nsa(dp95
g11
g12
(S'\x07\xe1\x08\x1e\x0e\x1c;\x01z\xe8'
p96
tp97
Rp98
sg16
g12
(S'\x07\xe1\x08\x1e\x0e\x1c3\x0e,\xe8'
p99
tp100
Rp101
sg20
(dp102
g22
I3
sg23
(dp103
g25
(lp104
I3
asg27
(lp105
I3
asg29
(lp106
I3
asg31
(lp107
I3
assg33
(g34
g35
tp108
sg37
(dp109
g25
(lp110
F-2.360277699760804
asg27
(lp111
F330.0
asg29
(lp112
F6.0
asg31
(lp113
F341.0
assg43
Nssg44
I2
sg22
I3
sg45
Nsg46
I0
sg47
(dp114
g49
g50
sg51
F0.22219997644424438
sg52
F1504103339.092552
ssg53
Nsg54
Nsa(dp115
g11
g12
(S'\x07\xe1\x08\x1e\x0e\x1d\x10\x03Wx'
p116
tp117
Rp118
sg16
g12
(S'\x07\xe1\x08\x1e\x0e\x1c;\x01\x8a\x88'
p119
tp120
Rp121
sg20
(dp122
g22
I4
sg23
(dp123
g25
(lp124
I4
asg27
(lp125
I4
asg29
(lp126
I4
asg31
(lp127
I4
assg33
(g34
g35
tp128
sg37
(dp129
g25
(lp130
F-0.4919004039903747
asg27
(lp131
F305.0
asg29
(lp132
F15.0
asg31
(lp133
F281.0
assg43
Nssg44
I2
sg22
I4
sg45
Nsg46
I0
sg47
(dp134
g49
g50
sg51
F0.0868000015616417
sg52
F1504103356.212902
ssg53
Nsg54
Nsa(dp135
g11
g12
(S'\x07\xe1\x08\x1e\x0e\x1d\x1c\x01\xec0'
p136
tp137
Rp138
sg16
g12
(S'\x07\xe1\x08\x1e\x0e\x1d\x10\x03c0'
p139
tp140
Rp141
sg20
(dp142
g22
I5
sg23
(dp143
g25
(lp144
I5
asg27
(lp145
I5
asg29
(lp146
I5
asg31
(lp147
I5
assg33
(g34
g35
tp148
sg37
(dp149
g25
(lp150
F-13.743297107354554
asg27
(lp151
F488.0
asg29
(lp152
F10.0
asg31
(lp153
F601.0
assg43
Nssg44
I2
sg22
I5
sg45
Nsg46
I0
sg47
(dp154
g49
g50
sg51
F0.12759999930858612
sg52
F1504103368.118472
ssg53
Nsg54
Nsa(dp155
g11
g12
(S'\x07\xe1\x08\x1e\x0e\x1d&\x0bN\x88'
p156
tp157
Rp158
sg16
g12
(S'\x07\xe1\x08\x1e\x0e\x1d\x1c\x01\xf7\xe8'
p159
tp160
Rp161
sg20
(dp162
g22
I6
sg23
(dp163
g25
(lp164
I6
asg27
(lp165
I6
asg29
(lp166
I6
asg31
(lp167
I6
assg33
(g34
g35
tp168
sg37
(dp169
g25
(lp170
F-1.8476916830465377
asg27
(lp171
F324.0
asg29
(lp172
F9.0
asg31
(lp173
F183.0
assg43
Nssg44
I2
sg22
I6
sg45
Nsg46
I0
sg47
(dp174
g49
g50
sg51
F0.09600000083446503
sg52
F1504103378.732815
ssg53
Nsg54
Nsa(dp175
g11
g12
(S"\x07\xe1\x08\x1e\x0e\x1d.\x00'\x10"
p176
tp177
Rp178
sg16
g12
(S'\x07\xe1\x08\x1e\x0e\x1d&\x0bZ@'
p179
tp180
Rp181
sg20
(dp182
g22
I7
sg23
(dp183
g25
(lp184
I7
asg27
(lp185
I7
asg29
(lp186
I7
asg31
(lp187
I7
assg33
(g34
g35
tp188
sg37
(dp189
g25
(lp190
F-6.206405643859243
asg27
(lp191
F554.0
asg29
(lp192
F6.0
asg31
(lp193
F673.0
assg43
Nssg44
I2
sg22
I7
sg45
Nsg46
I0
sg47
(dp194
g49
g50
sg51
F0.9539997577667236
sg52
F1504103385.997698
ssg53
Nsg54
Nsa(dp195
g11
g12
(S'\x07\xe1\x08\x1e\x0e\x1d7\x0e\x82\xd8'
p196
tp197
Rp198
sg16
g12
(S'\x07\xe1\x08\x1e\x0e\x1d.\x00:\x98'
p199
tp200
Rp201
sg20
(dp202
g22
I8
sg23
(dp203
g25
(lp204
I8
asg27
(lp205
I8
asg29
(lp206
I8
asg31
(lp207
I8
assg33
(g34
g35
tp208
sg37
(dp209
g25
(lp210
F-8.80741772378618
asg27
(lp211
F596.0
asg29
(lp212
F8.0
asg31
(lp213
F313.0
assg43
Nssg44
I2
sg22
I8
sg45
Nsg46
I0
sg47
(dp214
g49
g50
sg51
F0.8991997241973877
sg52
F1504103395.938179
ssg53
Nsg54
Nsa(dp215
g11
g12
(S'\x07\xe1\x08\x1e\x0e\x1e\x03\x0e\xe0\x98'
p216
tp217
Rp218
sg16
g12
(S'\x07\xe1\x08\x1e\x0e\x1d7\x0e\x8e\x90'
p219
tp220
Rp221
sg20
(dp222
g22
I9
sg23
(dp223
g25
(lp224
I9
asg27
(lp225
I9
asg29
(lp226
I9
asg31
(lp227
I9
assg33
(g34
g35
tp228
sg37
(dp229
g25
(lp230
F-15.236612333490248
asg27
(lp231
F695.0
asg29
(lp232
F6.0
asg31
(lp233
F644.0
assg43
Nssg44
I2
sg22
I9
sg45
Nsg46
I0
sg47
(dp234
g49
g50
sg51
F0.09259999543428421
sg52
F1504103403.961562
ssg53
Nsg54
Nsa(dp235
g11
g12
(S'\x07\xe1\x08\x1e\x0e\x1e\x16\x04\xaf8'
p236
tp237
Rp238
sg16
g12
(S'\x07\xe1\x08\x1e\x0e\x1e\x03\x0e\xf4 '
p239
tp240
Rp241
sg20
(dp242
g22
I10
sg23
(dp243
g25
(lp244
I10
asg27
(lp245
I10
asg29
(lp246
I10
asg31
(lp247
I10
assg33
(g34
g35
tp248
sg37
(dp249
g25
(lp250
F-6.979761685778785
asg27
(lp251
F308.0
asg29
(lp252
F16.0
asg31
(lp253
F112.0
assg43
Nssg44
I2
sg22
I10
sg45
Nsg46
I0
sg47
(dp254
g49
g50
sg51
F0.9431997537612915
sg52
F1504103422.289676
ssg53
Nsg54
Nsa(dp255
g11
g12
(S'\x07\xe1\x08\x1e\x0e\x1e \t\xd7\x88'
p256
tp257
Rp258
sg16
g12
(S'\x07\xe1\x08\x1e\x0e\x1e\x16\x04\xba\xf0'
p259
tp260
Rp261
sg20
(dp262
g22
I11
sg23
(dp263
g25
(lp264
I11
asg27
(lp265
I11
asg29
(lp266
I11
asg31
(lp267
I11
assg33
(g34
g35
tp268
sg37
(dp269
g25
(lp270
F-4.782096721095389
asg27
(lp271
F148.0
asg29
(lp272
F9.0
asg31
(lp273
F550.0
assg43
Nssg44
I2
sg22
I11
sg45
Nsg46
I0
sg47
(dp274
g49
g50
sg51
F0.9665997624397278
sg52
F1504103432.633509
ssg53
Nsg54
Nsa(dp275
g11
g12
(S'\x07\xe1\x08\x1e\x0e\x1e1\x00u0'
p276
tp277
Rp278
sg16
g12
(S'\x07\xe1\x08\x1e\x0e\x1e \t\xeb\x10'
p279
tp280
Rp281
sg20
(dp282
g22
I12
sg23
(dp283
g25
(lp284
I12
asg27
(lp285
I12
asg29
(lp286
I12
asg31
(lp287
I12
assg33
(g34
g35
tp288
sg37
(dp289
g25
(lp290
F-8.721791140098325
asg27
(lp291
F304.0
asg29
(lp292
F14.0
asg31
(lp293
F694.0
assg43
Nssg44
I2
sg22
I12
sg45
Nsg46
I0
sg47
(dp294
g49
g50
sg51
F0.9221997261047363
sg52
F1504103449.005556
ssg53
Nsg54
Nsa(dp295
g11
g12
(S'\x07\xe1\x08\x1e\x0e\x1e9\tJ\xe8'
p296
tp297
Rp298
sg16
g12
(S'\x07\xe1\x08\x1e\x0e\x1e1\x00\x98X'
p299
tp300
Rp301
sg20
(dp302
g22
I13
sg23
(dp303
g25
(lp304
I13
asg27
(lp305
I13
asg29
(lp306
I13
asg31
(lp307
I13
assg33
(g34
g35
tp308
sg37
(dp309
g25
(lp310
F-10.694093728111596
asg27
(lp311
F231.0
asg29
(lp312
F7.0
asg31
(lp313
F226.0
assg43
Nssg44
I2
sg22
I13
sg45
Nsg46
I0
sg47
(dp314
g49
g50
sg51
F0.5513999462127686
sg52
F1504103457.593115
ssg53
Nsg54
Nsa(dp315
g11
g12
(S'\x07\xe1\x08\x1e\x0e\x1f\x0c\x00.\xe0'
p316
tp317
Rp318
sg16
g12
(S'\x07\xe1\x08\x1e\x0e\x1e9\tV\xa0'
p319
tp320
Rp321
sg20
(dp322
g22
I14
sg23
(dp323
g25
(lp324
I14
asg27
(lp325
I14
asg29
(lp326
I14
asg31
(lp327
I14
assg33
(g34
g35
tp328
sg37
(dp329
g25
(lp330
F-16.312578561704978
asg27
(lp331
F82.0
asg29
(lp332
F13.0
asg31
(lp333
F97.0
assg43
Nssg44
I2
sg22
I14
sg45
Nsg46
I0
sg47
(dp334
g49
g50
sg51
F0.1127999946475029
sg52
F1504103471.994512
ssg53
Nsg54
Nsa(dp335
g11
g12
(S'\x07\xe1\x08\x1e\x0e\x1f\x15\x0e)\x00'
p336
tp337
Rp338
sg16
g12
(S'\x07\xe1\x08\x1e\x0e\x1f\x0c\x00>\x80'
p339
tp340
Rp341
sg20
(dp342
g22
I15
sg23
(dp343
g25
(lp344
I15
asg27
(lp345
I15
asg29
(lp346
I15
asg31
(lp347
I15
assg33
(g34
g35
tp348
sg37
(dp349
g25
(lp350
F-7.5448012789775305
asg27
(lp351
F329.0
asg29
(lp352
F8.0
asg31
(lp353
F29.0
assg43
Nssg44
I2
sg22
I15
sg45
Nsg46
I0
sg47
(dp354
g49
g50
sg51
F0.26559996604919434
sg52
F1504103481.905089
ssg53
Nsg54
Nsa(dp355
g11
g12
(S'\x07\xe1\x08\x1e\x0e\x1f*\r\x04\x08'
p356
tp357
Rp358
sg16
g12
(S'\x07\xe1\x08\x1e\x0e\x1f\x15\x0eDX'
p359
tp360
Rp361
sg20
(dp362
g22
I16
sg23
(dp363
g25
(lp364
I16
asg27
(lp365
I16
asg29
(lp366
I16
asg31
(lp367
I16
assg33
(g34
g35
tp368
sg37
(dp369
g25
(lp370
F-6.053269701042998
asg27
(lp371
F88.0
asg29
(lp372
F19.0
asg31
(lp373
F294.0
assg43
Nssg44
I2
sg22
I16
sg45
Nsg46
I0
sg47
(dp374
g49
g50
sg51
F0.952399730682373
sg52
F1504103502.826094
ssg53
Nsg54
Nsa(dp375
g11
g12
(S'\x07\xe1\x08\x1e\x0e\x1f;\x04\x12\xf8'
p376
tp377
Rp378
sg16
g12
(S'\x07\xe1\x08\x1e\x0e\x1f*\r\x13\xa8'
p379
tp380
Rp381
sg20
(dp382
g22
I17
sg23
(dp383
g25
(lp384
I17
asg27
(lp385
I17
asg29
(lp386
I17
asg31
(lp387
I17
assg33
(g34
g35
tp388
sg37
(dp389
g25
(lp390
F-17.882038615368216
asg27
(lp391
F677.0
asg29
(lp392
F13.0
asg31
(lp393
F773.0
assg43
Nssg44
I2
sg22
I17
sg45
Nsg46
I0
sg47
(dp394
g49
g50
sg51
F0.13699999451637268
sg52
F1504103519.236306
ssg53
Nsg54
Nsa(dp395
g11
g12
(S'\x07\xe1\x08\x1e\x0e \x15\x05C\xa8'
p396
tp397
Rp398
sg16
g12
(S'\x07\xe1\x08\x1e\x0e\x1f;\x04&\x80'
p399
tp400
Rp401
sg20
(dp402
g22
I18
sg23
(dp403
g25
(lp404
I18
asg27
(lp405
I18
asg29
(lp406
I18
asg31
(lp407
I18
assg33
(g34
g35
tp408
sg37
(dp409
g25
(lp410
F-13.676484227095788
asg27
(lp411
F656.0
asg29
(lp412
F18.0
asg31
(lp413
F460.0
assg43
Nssg44
I2
sg22
I18
sg45
Nsg46
I0
sg47
(dp414
g49
g50
sg51
F0.25060001015663147
sg52
F1504103541.320568
ssg53
Nsg54
Nsa(dp415
g11
g12
(S'\x07\xe1\x08\x1e\x0e +\x0e\x9aH'
p416
tp417
Rp418
sg16
g12
(S'\x07\xe1\x08\x1e\x0e \x15\x06\xc2x'
p419
tp420
Rp421
sg20
(dp422
g22
I19
sg23
(dp423
g25
(lp424
I19
asg27
(lp425
I19
asg29
(lp426
I19
asg31
(lp427
I19
assg33
(g34
g35
tp428
sg37
(dp429
g25
(lp430
F-14.659223309928151
asg27
(lp431
F179.0
asg29
(lp432
F19.0
asg31
(lp433
F625.0
assg43
Nssg44
I2
sg22
I19
sg45
Nsg46
I0
sg47
(dp434
g49
g50
sg51
F0.1305999904870987
sg52
F1504103563.931743
ssg53
Nsg54
Nsa(dp435
g11
g12
(S'\x07\xe1\x08\x1e\x0e!\x03\x061\xf0'
p436
tp437
Rp438
sg16
g12
(S'\x07\xe1\x08\x1e\x0e ,\x00}\x00'
p439
tp440
Rp441
sg20
(dp442
g22
I20
sg23
(dp443
g25
(lp444
I20
asg27
(lp445
I20
asg29
(lp446
I20
asg31
(lp447
I20
assg33
(g34
g35
tp448
sg37
(dp449
g25
(lp450
F-0.19420300942896268
asg27
(lp451
F764.0
asg29
(lp452
F16.0
asg31
(lp453
F430.0
assg43
Nssg44
I2
sg22
I20
sg45
Nsg46
I0
sg47
(dp454
g49
g50
sg51
F0.11579999327659607
sg52
F1504103583.380008
ssg53
Nsg54
Nsa(dp455
g11
g12
(S'\x07\xe1\x08\x1e\x0e!\x16\t\xcb\xd0'
p456
tp457
Rp458
sg16
g12
(S'\x07\xe1\x08\x1e\x0e!\x03\x06`\xd0'
p459
tp460
Rp461
sg20
(dp462
g22
I21
sg23
(dp463
g25
(lp464
I21
asg27
(lp465
I21
asg29
(lp466
I21
asg31
(lp467
I21
assg33
(g34
g35
tp468
sg37
(dp469
g25
(lp470
F-12.062318883504808
asg27
(lp471
F419.0
asg29
(lp472
F16.0
asg31
(lp473
F522.0
assg43
Nssg44
I2
sg22
I21
sg45
Nsg46
I0
sg47
(dp474
g49
g50
sg51
F0.6301999092102051
sg52
F1504103602.61261
ssg53
Nsg54
Nsa(dp475
g11
g12
(S'\x07\xe1\x08\x1e\x0e!#\x0e\xa2\x18'
p476
tp477
Rp478
sg16
g12
(S'\x07\xe1\x08\x1e\x0e!\x16\t\xfe\x98'
p479
tp480
Rp481
sg20
(dp482
g22
I22
sg23
(dp483
g25
(lp484
I22
asg27
(lp485
I22
asg29
(lp486
I22
asg31
(lp487
I22
assg33
(g34
g35
tp488
sg37
(dp489
g25
(lp490
F-17.576065050310945
asg27
(lp491
F768.0
asg29
(lp492
F11.0
asg31
(lp493
F382.0
assg43
Nssg44
I2
sg22
I22
sg45
Nsg46
I0
sg47
(dp494
g49
g50
sg51
F0.07019999623298645
sg52
F1504103615.928344
ssg53
Nsg54
Nsa(dp495
g11
g12
(S'\x07\xe1\x08\x1e\x0e!0\x06x@'
p496
tp497
Rp498
sg16
g12
(S'\x07\xe1\x08\x1e\x0e!#\x0e\xd0\xf8'
p499
tp500
Rp501
sg20
(dp502
g22
I23
sg23
(dp503
g25
(lp504
I23
asg27
(lp505
I23
asg29
(lp506
I23
asg31
(lp507
I23
assg33
(g34
g35
tp508
sg37
(dp509
g25
(lp510
F-17.685147392027062
asg27
(lp511
F14.0
asg29
(lp512
F11.0
asg31
(lp513
F365.0
assg43
Nssg44
I2
sg22
I23
sg45
Nsg46
I0
sg47
(dp514
g49
g50
sg51
F0.05139999836683273
sg52
F1504103628.393591
ssg53
Nsg54
Nsa(dp515
g11
g12
(S'\x07\xe1\x08\x1e\x0e"\x01\x00\xa0('
p516
tp517
Rp518
sg16
g12
(S'\x07\xe1\x08\x1e\x0e!0\x06\xab\x08'
p519
tp520
Rp521
sg20
(dp522
g22
I24
sg23
(dp523
g25
(lp524
I24
asg27
(lp525
I24
asg29
(lp526
I24
asg31
(lp527
I24
assg33
(g34
g35
tp528
sg37
(dp529
g25
(lp530
F-18.027184223503173
asg27
(lp531
F12.0
asg29
(lp532
F11.0
asg31
(lp533
F372.0
assg43
Nssg44
I2
sg22
I24
sg45
Nsg46
I0
sg47
(dp534
g49
g50
sg51
F0.11820000410079956
sg52
F1504103641.007821
ssg53
Nsg54
Nsa(dp535
g11
g12
(S'\x07\xe1\x08\x1e\x0e"\x0e\x01~\xd0'
p536
tp537
Rp538
sg16
g12
(S'\x07\xe1\x08\x1e\x0e"\x01\x00\xcf\x08'
p539
tp540
Rp541
sg20
(dp542
g22
I25
sg23
(dp543
g25
(lp544
I25
asg27
(lp545
I25
asg29
(lp546
I25
asg31
(lp547
I25
assg33
(g34
g35
tp548
sg37
(dp549
g25
(lp550
F-17.03223713015587
asg27
(lp551
F12.0
asg29
(lp552
F11.0
asg31
(lp553
F474.0
assg43
Nssg44
I2
sg22
I25
sg45
Nsg46
I0
sg47
(dp554
g49
g50
sg51
F0.08899999409914017
sg52
F1504103654.061309
ssg53
Nsg54
Nsa(dp555
g11
g12
(S'\x07\xe1\x08\x1e\x0e"\x1c\x0e\xff\xd8'
p556
tp557
Rp558
sg16
g12
(S'\x07\xe1\x08\x1e\x0e"\x0e\x01\xb1\x98'
p559
tp560
Rp561
sg20
(dp562
g22
I26
sg23
(dp563
g25
(lp564
I26
asg27
(lp565
I26
asg29
(lp566
I26
asg31
(lp567
I26
assg33
(g34
g35
tp568
sg37
(dp569
g25
(lp570
F-18.352705981041108
asg27
(lp571
F781.0
asg29
(lp572
F11.0
asg31
(lp573
F394.0
assg43
Nssg44
I2
sg22
I26
sg45
Nsg46
I0
sg47
(dp574
g49
g50
sg51
F0.10899999737739563
sg52
F1504103668.937782
ssg53
Nsg54
Nsa(dp575
g11
g12
(S'\x07\xe1\x08\x1e\x0e".\x04\xd2`'
p576
tp577
Rp578
sg16
g12
(S'\x07\xe1\x08\x1e\x0e"\x1d\x00\x00\x00'
p579
tp580
Rp581
sg20
(dp582
g22
I27
sg23
(dp583
g25
(lp584
I27
asg27
(lp585
I27
asg29
(lp586
I27
asg31
(lp587
I27
assg33
(g34
g35
tp588
sg37
(dp589
g25
(lp590
F-13.481968721083797
asg27
(lp591
F488.0
asg29
(lp592
F12.0
asg31
(lp593
F211.0
assg43
Nssg44
I2
sg22
I27
sg45
Nsg46
I0
sg47
(dp594
g49
g50
sg51
F0.18400000035762787
sg52
F1504103686.272656
ssg53
Nsg54
Nsa(dp595
g11
g12
(S'\x07\xe1\x08\x1e\x0e#\n\x03z\xa0'
p596
tp597
Rp598
sg16
g12
(S'\x07\xe1\x08\x1e\x0e".\x05\t\x10'
p599
tp600
Rp601
sg20
(dp602
g22
I28
sg23
(dp603
g25
(lp604
I28
asg27
(lp605
I28
asg29
(lp606
I28
asg31
(lp607
I28
assg33
(g34
g35
tp608
sg37
(dp609
g25
(lp610
F-11.243836071365816
asg27
(lp611
F505.0
asg29
(lp612
F12.0
asg31
(lp613
F150.0
assg43
Nssg44
I2
sg22
I28
sg45
Nsg46
I0
sg47
(dp614
g49
g50
sg51
F0.6447998285293579
sg52
F1504103710.181256
ssg53
Nsg54
Nsa(dp615
g11
g12
(S'\x07\xe1\x08\x1e\x0e#\x14\x07+\xf0'
p616
tp617
Rp618
sg16
g12
(S'\x07\xe1\x08\x1e\x0e#\n\x03\xb9 '
p619
tp620
Rp621
sg20
(dp622
g22
I29
sg23
(dp623
g25
(lp624
I29
asg27
(lp625
I29
asg29
(lp626
I29
asg31
(lp627
I29
assg33
(g34
g35
tp628
sg37
(dp629
g25
(lp630
F-16.759733837469515
asg27
(lp631
F730.0
asg29
(lp632
F5.0
asg31
(lp633
F522.0
assg43
Nssg44
I2
sg22
I29
sg45
Nsg46
I0
sg47
(dp634
g49
g50
sg51
F0.10159999132156372
sg52
F1504103720.39313
ssg53
Nsg54
Nsa(dp635
g11
g12
(S"\x07\xe1\x08\x1e\x0e#'\x069\xc0"
p636
tp637
Rp638
sg16
g12
(S'\x07\xe1\x08\x1e\x0e#\x14\x07\x85\xc8'
p639
tp640
Rp641
sg20
(dp642
g22
I30
sg23
(dp643
g25
(lp644
I30
asg27
(lp645
I30
asg29
(lp646
I30
asg31
(lp647
I30
assg33
(g34
g35
tp648
sg37
(dp649
g25
(lp650
F-12.350964756800023
asg27
(lp651
F396.0
asg29
(lp652
F10.0
asg31
(lp653
F365.0
assg43
Nssg44
I2
sg22
I30
sg45
Nsg46
I0
sg47
(dp654
g49
g50
sg51
F0.2679999768733978
sg52
F1504103739.366199
ssg53
Nsg54
Nsa(dp655
g11
g12
(S'\x07\xe1\x08\x1e\x0e$\x02\x0b\x088'
p656
tp657
Rp658
sg16
g12
(S"\x07\xe1\x08\x1e\x0e#'\x06pp"
p659
tp660
Rp661
sg20
(dp662
g22
I31
sg23
(dp663
g25
(lp664
I31
asg27
(lp665
I31
asg29
(lp666
I31
asg31
(lp667
I31
assg33
(g34
g35
tp668
sg37
(dp669
g25
(lp670
F-9.625800707151232
asg27
(lp671
F389.0
asg29
(lp672
F14.0
asg31
(lp673
F416.0
assg43
Nssg44
I2
sg22
I31
sg45
Nsg46
I0
sg47
(dp674
g49
g50
sg51
F0.8877997398376465
sg52
F1504103762.6786
ssg53
Nsg54
Nsa(dp675
g11
g12
(S'\x07\xe1\x08\x1e\x0e$\x11\x00\xe2\x90'
p676
tp677
Rp678
sg16
g12
(S'\x07\xe1\x08\x1e\x0e$\x02\x0b>\xe8'
p679
tp680
Rp681
sg20
(dp682
g22
I32
sg23
(dp683
g25
(lp684
I32
asg27
(lp685
I32
asg29
(lp686
I32
asg31
(lp687
I32
assg33
(g34
g35
tp688
sg37
(dp689
g25
(lp690
F-15.962399103293661
asg27
(lp691
F247.0
asg29
(lp692
F10.0
asg31
(lp693
F240.0
assg43
Nssg44
I2
sg22
I32
sg45
Nsg46
I0
sg47
(dp694
g49
g50
sg51
F0.13939999043941498
sg52
F1504103777.011998
ssg53
Nsg54
Nsa(dp695
g11
g12
(S'\x07\xe1\x08\x1e\x0e$#\x00\xa0('
p696
tp697
Rp698
sg16
g12
(S'\x07\xe1\x08\x1e\x0e$\x11\x01\x19@'
p699
tp700
Rp701
sg20
(dp702
g22
I33
sg23
(dp703
g25
(lp704
I33
asg27
(lp705
I33
asg29
(lp706
I33
asg31
(lp707
I33
assg33
(g34
g35
tp708
sg37
(dp709
g25
(lp710
F-17.45949127745213
asg27
(lp711
F73.0
asg29
(lp712
F15.0
asg31
(lp713
F327.0
assg43
Nssg44
I2
sg22
I33
sg45
Nsg46
I0
sg47
(dp714
g49
g50
sg51
F0.1639999896287918
sg52
F1504103794.993563
ssg53
Nsg54
Nsa(dp715
g11
g12
(S'\x07\xe1\x08\x1e\x0e$-\x05f\xd0'
p716
tp717
Rp718
sg16
g12
(S'\x07\xe1\x08\x1e\x0e$#\x00\xd6\xd8'
p719
tp720
Rp721
sg20
(dp722
g22
I34
sg23
(dp723
g25
(lp724
I34
asg27
(lp725
I34
asg29
(lp726
I34
asg31
(lp727
I34
assg33
(g34
g35
tp728
sg37
(dp729
g25
(lp730
F-15.110290492252226
asg27
(lp731
F562.0
asg29
(lp732
F8.0
asg31
(lp733
F20.0
assg43
Nssg44
I2
sg22
I34
sg45
Nsg46
I0
sg47
(dp734
g49
g50
sg51
F0.08139999955892563
sg52
F1504103805.298838
ssg53
Nsg54
Nsa(dp735
g11
g12
(S'\x07\xe1\x08\x1e\x0e$4\t\xee\xf8'
p736
tp737
Rp738
sg16
g12
(S'\x07\xe1\x08\x1e\x0e$-\x05\x9d\x80'
p739
tp740
Rp741
sg20
(dp742
g22
I35
sg23
(dp743
g25
(lp744
I35
asg27
(lp745
I35
asg29
(lp746
I35
asg31
(lp747
I35
assg33
(g34
g35
tp748
sg37
(dp749
g25
(lp750
F-3.614222808567332
asg27
(lp751
F143.0
asg29
(lp752
F5.0
asg31
(lp753
F563.0
assg43
Nssg44
I2
sg22
I35
sg45
Nsg46
I0
sg47
(dp754
g49
g50
sg51
F0.5251999497413635
sg52
F1504103812.599126
ssg53
Nsg54
Nsa(dp755
g11
g12
(S'\x07\xe1\x08\x1e\x0e%\x04\x08I\x18'
p756
tp757
Rp758
sg16
g12
(S'\x07\xe1\x08\x1e\x0e$4\n)\x90'
p759
tp760
Rp761
sg20
(dp762
g22
I36
sg23
(dp763
g25
(lp764
I36
asg27
(lp765
I36
asg29
(lp766
I36
asg31
(lp767
I36
assg33
(g34
g35
tp768
sg37
(dp769
g25
(lp770
F-14.244630660503532
asg27
(lp771
F642.0
asg29
(lp772
F9.0
asg31
(lp773
F471.0
assg43
Nssg44
I2
sg22
I36
sg45
Nsg46
I0
sg47
(dp774
g49
g50
sg51
F0.10259999334812164
sg52
F1504103824.476906
ssg53
Nsg54
Nsa(dp775
g11
g12
(S'\x07\xe1\x08\x1e\x0e%\x13\x0c\x96\xa8'
p776
tp777
Rp778
sg16
g12
(S'\x07\xe1\x08\x1e\x0e%\x04\x08\x83\xb0'
p779
tp780
Rp781
sg20
(dp782
g22
I37
sg23
(dp783
g25
(lp784
I37
asg27
(lp785
I37
asg29
(lp786
I37
asg31
(lp787
I37
assg33
(g34
g35
tp788
sg37
(dp789
g25
(lp790
F-12.785424899770556
asg27
(lp791
F261.0
asg29
(lp792
F12.0
asg31
(lp793
F270.0
assg43
Nssg44
I2
sg22
I37
sg45
Nsg46
I0
sg47
(dp794
g49
g50
sg51
F0.18059998750686646
sg52
F1504103839.750668
ssg53
Nsg54
Nsa(dp795
g11
g12
(S'\x07\xe1\x08\x1e\x0e%)\x03_H'
p796
tp797
Rp798
sg16
g12
(S'\x07\xe1\x08\x1e\x0e%\x13\x0c\xe8\xb0'
p799
tp800
Rp801
sg20
(dp802
g22
I38
sg23
(dp803
g25
(lp804
I38
asg27
(lp805
I38
asg29
(lp806
I38
asg31
(lp807
I38
assg33
(g34
g35
tp808
sg37
(dp809
g25
(lp810
F-9.837078057151986
asg27
(lp811
F462.0
asg29
(lp812
F17.0
asg31
(lp813
F713.0
assg43
Nssg44
I2
sg22
I38
sg45
Nsg46
I0
sg47
(dp814
g49
g50
sg51
F0.8985997438430786
sg52
F1504103861.164227
ssg53
Nsg54
Nsa(dp815
g11
g12
(S'\x07\xe1\x08\x1e\x0e%2\r\xcb@'
p816
tp817
Rp818
sg16
g12
(S'\x07\xe1\x08\x1e\x0e%)\x03\x99\xe0'
p819
tp820
Rp821
sg20
(dp822
g22
I39
sg23
(dp823
g25
(lp824
I39
asg27
(lp825
I39
asg29
(lp826
I39
asg31
(lp827
I39
assg33
(g34
g35
tp828
sg37
(dp829
g25
(lp830
F-15.752070595746478
asg27
(lp831
F608.0
asg29
(lp832
F7.0
asg31
(lp833
F77.0
assg43
Nssg44
I2
sg22
I39
sg45
Nsg46
I0
sg47
(dp834
g49
g50
sg51
F0.0867999941110611
sg52
F1504103870.844868
ssg53
Nsg54
Nsa(dp835
g11
g12
(S'\x07\xe1\x08\x1e\x0e&\x07\x0c\n\x08'
p836
tp837
Rp838
sg16
g12
(S'\x07\xe1\x08\x1e\x0e%2\x0e\x05\xd8'
p839
tp840
Rp841
sg20
(dp842
g22
I40
sg23
(dp843
g25
(lp844
I40
asg27
(lp845
I40
asg29
(lp846
I40
asg31
(lp847
I40
assg33
(g34
g35
tp848
sg37
(dp849
g25
(lp850
F-11.01302629550017
asg27
(lp851
F540.0
asg29
(lp852
F13.0
asg31
(lp853
F335.0
assg43
Nssg44
I2
sg22
I40
sg45
Nsg46
I0
sg47
(dp854
g49
g50
sg51
F0.769399881362915
sg52
F1504103887.711064
ssg53
Nsg54
Nsa(dp855
g11
g12
(S'\x07\xe1\x08\x1e\x0e&\x15\x00\xe2\x90'
p856
tp857
Rp858
sg16
g12
(S'\x07\xe1\x08\x1e\x0e&\x07\x0cX('
p859
tp860
Rp861
sg20
(dp862
g22
I41
sg23
(dp863
g25
(lp864
I41
asg27
(lp865
I41
asg29
(lp866
I41
asg31
(lp867
I41
assg33
(g34
g35
tp868
sg37
(dp869
g25
(lp870
F-17.244151928245294
asg27
(lp871
F367.0
asg29
(lp872
F10.0
asg31
(lp873
F168.0
assg43
Nssg44
I2
sg22
I41
sg45
Nsg46
I0
sg47
(dp874
g49
g50
sg51
F0.10760000348091125
sg52
F1504103900.992378
ssg53
Nsg54
Nsa(dp875
g11
g12
(S"\x07\xe1\x08\x1e\x0e&'\x07\x1cP"
p876
tp877
Rp878
sg16
g12
(S'\x07\xe1\x08\x1e\x0e&\x15\x01!\x10'
p879
tp880
Rp881
sg20
(dp882
g22
I42
sg23
(dp883
g25
(lp884
I42
asg27
(lp885
I42
asg29
(lp886
I42
asg31
(lp887
I42
assg33
(g34
g35
tp888
sg37
(dp889
g25
(lp890
F-18.255117174703443
asg27
(lp891
F191.0
asg29
(lp892
F15.0
asg31
(lp893
F596.0
assg43
Nssg44
I2
sg22
I42
sg45
Nsg46
I0
sg47
(dp894
g49
g50
sg51
F0.1119999960064888
sg52
F1504103919.398361
ssg53
Nsg54
Nsa(dp895
g11
g12
(S'\x07\xe1\x08\x1e\x0e&1\x0b\x04P'
p896
tp897
Rp898
sg16
g12
(S"\x07\xe1\x08\x1e\x0e&'\x07Z\xd0"
p899
tp900
Rp901
sg20
(dp902
g22
I43
sg23
(dp903
g25
(lp904
I43
asg27
(lp905
I43
asg29
(lp906
I43
asg31
(lp907
I43
assg33
(g34
g35
tp908
sg37
(dp909
g25
(lp910
F-1.1164032985515835
asg27
(lp911
F721.0
asg29
(lp912
F7.0
asg31
(lp913
F505.0
assg43
Nssg44
I2
sg22
I43
sg45
Nsg46
I0
sg47
(dp914
g49
g50
sg51
F0.11459999531507492
sg52
F1504103929.624089
ssg53
Nsg54
Nsa(dp915
g11
g12
(S"\x07\xe1\x08\x1e\x0e'\x02\x01S\xd8"
p916
tp917
Rp918
sg16
g12
(S'\x07\xe1\x08\x1e\x0e&1\x0bm\xc8'
p919
tp920
Rp921
sg20
(dp922
g22
I44
sg23
(dp923
g25
(lp924
I44
asg27
(lp925
I44
asg29
(lp926
I44
asg31
(lp927
I44
assg33
(g34
g35
tp928
sg37
(dp929
g25
(lp930
F-3.263584855039916
asg27
(lp931
F446.0
asg29
(lp932
F9.0
asg31
(lp933
F431.0
assg43
Nssg44
I2
sg22
I44
sg45
Nsg46
I0
sg47
(dp934
g49
g50
sg51
F0.9251996874809265
sg52
F1504103942.014178
ssg53
Nsg54
Nsa(dp935
g11
g12
(S"\x07\xe1\x08\x1e\x0e'\x13\x05b\xe8"
p936
tp937
Rp938
sg16
g12
(S"\x07\xe1\x08\x1e\x0e'\x02\x01\x9a("
p939
tp940
Rp941
sg20
(dp942
g22
I45
sg23
(dp943
g25
(lp944
I45
asg27
(lp945
I45
asg29
(lp946
I45
asg31
(lp947
I45
assg33
(g34
g35
tp948
sg37
(dp949
g25
(lp950
F-16.417034698139847
asg27
(lp951
F35.0
asg29
(lp952
F14.0
asg31
(lp953
F298.0
assg43
Nssg44
I2
sg22
I45
sg45
Nsg46
I0
sg47
(dp954
g49
g50
sg51
F0.10939999669790268
sg52
F1504103959.27902
ssg53
Nsg54
Nsa(dp955
g11
g12
(S"\x07\xe1\x08\x1e\x0e'!\r\xda\xe0"
p956
tp957
Rp958
sg16
g12
(S"\x07\xe1\x08\x1e\x0e'\x13\x05\xa5P"
p959
tp960
Rp961
sg20
(dp962
g22
I46
sg23
(dp963
g25
(lp964
I46
asg27
(lp965
I46
asg29
(lp966
I46
asg31
(lp967
I46
assg33
(g34
g35
tp968
sg37
(dp969
g25
(lp970
F-8.372441660553374
asg27
(lp971
F356.0
asg29
(lp972
F11.0
asg31
(lp973
F369.0
assg43
Nssg44
I2
sg22
I46
sg45
Nsg46
I0
sg47
(dp974
g49
g50
sg51
F0.9203997254371643
sg52
F1504103973.833487
ssg53
Nsg54
Nsa(dp975
g11
g12
(S"\x07\xe1\x08\x1e\x0e'+\x05\x91\xc8"
p976
tp977
Rp978
sg16
g12
(S"\x07\xe1\x08\x1e\x0e'!\x0e\x1dH"
p979
tp980
Rp981
sg20
(dp982
g22
I47
sg23
(dp983
g25
(lp984
I47
asg27
(lp985
I47
asg29
(lp986
I47
asg31
(lp987
I47
assg33
(g34
g35
tp988
sg37
(dp989
g25
(lp990
F-14.390379125984891
asg27
(lp991
F133.0
asg29
(lp992
F6.0
asg31
(lp993
F558.0
assg43
Nssg44
I2
sg22
I47
sg45
Nsg46
I0
sg47
(dp994
g49
g50
sg51
F0.0875999927520752
sg52
F1504103983.283568
ssg53
Nsg54
Nsa(dp995
g11
g12
(S"\x07\xe1\x08\x1e\x0e'6\x04\xa3\x80"
p996
tp997
Rp998
sg16
g12
(S"\x07\xe1\x08\x1e\x0e'+\x05\xd40"
p999
tp1000
Rp1001
sg20
(dp1002
g22
I48
sg23
(dp1003
g25
(lp1004
I48
asg27
(lp1005
I48
asg29
(lp1006
I48
asg31
(lp1007
I48
assg33
(g34
g35
tp1008
sg37
(dp1009
g25
(lp1010
F-5.116324924165705
asg27
(lp1011
F279.0
asg29
(lp1012
F8.0
asg31
(lp1013
F203.0
assg43
Nssg44
I2
sg22
I48
sg45
Nsg46
I0
sg47
(dp1014
g49
g50
sg51
F0.9593997597694397
sg52
F1504103994.221517
ssg53
Nsg54
Nsa(dp1015
g11
g12
(S'\x07\xe1\x08\x1e\x0e(\x0e\x06\xedp'
p1016
tp1017
Rp1018
sg16
g12
(S"\x07\xe1\x08\x1e\x0e'6\x04\xe5\xe8"
p1019
tp1020
Rp1021
sg20
(dp1022
g22
I49
sg23
(dp1023
g25
(lp1024
I49
asg27
(lp1025
I49
asg29
(lp1026
I49
asg31
(lp1027
I49
assg33
(g34
g35
tp1028
sg37
(dp1029
g25
(lp1030
F-13.088513773519626
asg27
(lp1031
F591.0
asg29
(lp1032
F15.0
asg31
(lp1033
F255.0
assg43
Nssg44
I2
sg22
I49
sg45
Nsg46
I0
sg47
(dp1034
g49
g50
sg51
F0.3248000144958496
sg52
F1504104014.372807
ssg53
Nsg54
Nsa(dp1035
g11
g12
(S'\x07\xe1\x08\x1e\x0e( \x08P\xe8'
p1036
tp1037
Rp1038
sg16
g12
(S'\x07\xe1\x08\x1e\x0e(\x0e\x07/\xd8'
p1039
tp1040
Rp1041
sg20
(dp1042
g22
I50
sg23
(dp1043
g25
(lp1044
I50
asg27
(lp1045
I50
asg29
(lp1046
I50
asg31
(lp1047
I50
assg33
(g34
g35
tp1048
sg37
(dp1049
g25
(lp1050
F-12.052368152257365
asg27
(lp1051
F526.0
asg29
(lp1052
F13.0
asg31
(lp1053
F745.0
assg43
Nssg44
I2
sg22
I50
sg45
Nsg46
I0
sg47
(dp1054
g49
g50
sg51
F0.6021998524665833
sg52
F1504104032.449249
ssg53
Nsg54
Nsa(dp1055
g11
g12
(S'\x07\xe1\x08\x1e\x0e(5\x0b\x1b\xc0'
p1056
tp1057
Rp1058
sg16
g12
(S'\x07\xe1\x08\x1e\x0e( \x08\x978'
p1059
tp1060
Rp1061
sg20
(dp1062
g22
I51
sg23
(dp1063
g25
(lp1064
I51
asg27
(lp1065
I51
asg29
(lp1066
I51
asg31
(lp1067
I51
assg33
(g34
g35
tp1068
sg37
(dp1069
g25
(lp1070
F-15.012171815396597
asg27
(lp1071
F211.0
asg29
(lp1072
F17.0
asg31
(lp1073
F655.0
assg43
Nssg44
I2
sg22
I51
sg45
Nsg46
I0
sg47
(dp1074
g49
g50
sg51
F0.09699998795986176
sg52
F1504104053.620968
ssg53
Nsg54
Nsa(dp1075
g11
g12
(S'\x07\xe1\x08\x1e\x0e)\x12\x01\xf4\x00'
p1076
tp1077
Rp1078
sg16
g12
(S'\x07\xe1\x08\x1e\x0e(5\x0bm\xc8'
p1079
tp1080
Rp1081
sg20
(dp1082
g22
I52
sg23
(dp1083
g25
(lp1084
I52
asg27
(lp1085
I52
asg29
(lp1086
I52
asg31
(lp1087
I52
assg33
(g34
g35
tp1088
sg37
(dp1089
g25
(lp1090
F-6.64171933771472
asg27
(lp1091
F107.0
asg29
(lp1092
F20.0
asg31
(lp1093
F593.0
assg43
Nssg44
I2
sg22
I52
sg45
Nsg46
I0
sg47
(dp1094
g49
g50
sg51
F0.9483996629714966
sg52
F1504104078.039685
ssg53
Nsg54
Nsa(dp1095
g11
g12
(S'\x07\xe1\x08\x1e\x0e)"\ruP'
p1096
tp1097
Rp1098
sg16
g12
(S'\x07\xe1\x08\x1e\x0e)\x12\x026h'
p1099
tp1100
Rp1101
sg20
(dp1102
g22
I53
sg23
(dp1103
g25
(lp1104
I53
asg27
(lp1105
I53
asg29
(lp1106
I53
asg31
(lp1107
I53
assg33
(g34
g35
tp1108
sg37
(dp1109
g25
(lp1110
F-7.9491517282128825
asg27
(lp1111
F633.0
asg29
(lp1112
F12.0
asg31
(lp1113
F446.0
assg43
Nssg44
I2
sg22
I53
sg45
Nsg46
I0
sg47
(dp1114
g49
g50
sg51
F0.9387997388839722
sg52
F1504104094.79033
ssg53
Nsg54
Nsa(dp1115
g11
g12
(S'\x07\xe1\x08\x1e\x0e)0\x08\xc6\x18'
p1116
tp1117
Rp1118
sg16
g12
(S'\x07\xe1\x08\x1e\x0e)"\r\xbb\xa0'
p1119
tp1120
Rp1121
sg20
(dp1122
g22
I54
sg23
(dp1123
g25
(lp1124
I54
asg27
(lp1125
I54
asg29
(lp1126
I54
asg31
(lp1127
I54
assg33
(g34
g35
tp1128
sg37
(dp1129
g25
(lp1130
F-10.177123652293307
asg27
(lp1131
F39.0
asg29
(lp1132
F10.0
asg31
(lp1133
F407.0
assg43
Nssg44
I2
sg22
I54
sg45
Nsg46
I0
sg47
(dp1134
g49
g50
sg51
F0.6095998883247375
sg52
F1504104108.460202
ssg53
Nsg54
Nsa(dp1135
g11
g12
(S'\x07\xe1\x08\x1e\x0e*\x02\x04\xe9\xd0'
p1136
tp1137
Rp1138
sg16
g12
(S'\x07\xe1\x08\x1e\x0e)0\t\x0ch'
p1139
tp1140
Rp1141
sg20
(dp1142
g22
I55
sg23
(dp1143
g25
(lp1144
I55
asg27
(lp1145
I55
asg29
(lp1146
I55
asg31
(lp1147
I55
assg33
(g34
g35
tp1148
sg37
(dp1149
g25
(lp1150
F-9.149527355847548
asg27
(lp1151
F756.0
asg29
(lp1152
F9.0
asg31
(lp1153
F495.0
assg43
Nssg44
I2
sg22
I55
sg45
Nsg46
I0
sg47
(dp1154
g49
g50
sg51
F0.9113997220993042
sg52
F1504104122.225388
ssg53
Nsg54
Nsa(dp1155
g11
g12
(S'\x07\xe1\x08\x1e\x0e*\x12\x00\x13\x88'
p1156
tp1157
Rp1158
sg16
g12
(S'\x07\xe1\x08\x1e\x0e*\x02\x050 '
p1159
tp1160
Rp1161
sg20
(dp1162
g22
I56
sg23
(dp1163
g25
(lp1164
I56
asg27
(lp1165
I56
asg29
(lp1166
I56
asg31
(lp1167
I56
assg33
(g34
g35
tp1168
sg37
(dp1169
g25
(lp1170
F-15.725991473296752
asg27
(lp1171
F676.0
asg29
(lp1172
F11.0
asg31
(lp1173
F149.0
assg43
Nssg44
I2
sg22
I56
sg45
Nsg46
I0
sg47
(dp1174
g49
g50
sg51
F0.08239999413490295
sg52
F1504104137.907006
ssg53
Nsg54
Nsa(dp1175
g11
g12
(S'\x07\xe1\x08\x1e\x0e*$\n\x93\x08'
p1176
tp1177
Rp1178
sg16
g12
(S'\x07\xe1\x08\x1e\x0e*\x12\x00]\xc0'
p1179
tp1180
Rp1181
sg20
(dp1182
g22
I57
sg23
(dp1183
g25
(lp1184
I57
asg27
(lp1185
I57
asg29
(lp1186
I57
asg31
(lp1187
I57
assg33
(g34
g35
tp1188
sg37
(dp1189
g25
(lp1190
F-11.416661726568739
asg27
(lp1191
F173.0
asg29
(lp1192
F14.0
asg31
(lp1193
F312.0
assg43
Nssg44
I2
sg22
I57
sg45
Nsg46
I0
sg47
(dp1194
g49
g50
sg51
F0.567599892616272
sg52
F1504104156.55737
ssg53
Nsg54
Nsa(dp1195
g11
g12
(S'\x07\xe1\x08\x1e\x0e*/\x07\xf3('
p1196
tp1197
Rp1198
sg16
g12
(S'\x07\xe1\x08\x1e\x0e*$\x0b\x088'
p1199
tp1200
Rp1201
sg20
(dp1202
g22
I58
sg23
(dp1203
g25
(lp1204
I58
asg27
(lp1205
I58
asg29
(lp1206
I58
asg31
(lp1207
I58
assg33
(g34
g35
tp1208
sg37
(dp1209
g25
(lp1210
F-13.981980809921133
asg27
(lp1211
F474.0
asg29
(lp1212
F7.0
asg31
(lp1213
F111.0
assg43
Nssg44
I2
sg22
I58
sg45
Nsg46
I0
sg47
(dp1214
g49
g50
sg51
F0.07419998943805695
sg52
F1504104167.424021
ssg53
Nsg54
Nsa(dp1215
g11
g12
(S'\x07\xe1\x08\x1e\x0e+\t\x0e{\x08'
p1216
tp1217
Rp1218
sg16
g12
(S'\x07\xe1\x08\x1e\x0e*/\x08=`'
p1219
tp1220
Rp1221
sg20
(dp1222
g22
I59
sg23
(dp1223
g25
(lp1224
I59
asg27
(lp1225
I59
asg29
(lp1226
I59
asg31
(lp1227
I59
assg33
(g34
g35
tp1228
sg37
(dp1229
g25
(lp1230
F-17.42683207771198
asg27
(lp1231
F415.0
asg29
(lp1232
F17.0
asg31
(lp1233
F389.0
assg43
Nssg44
I2
sg22
I59
sg45
Nsg46
I0
sg47
(dp1234
g49
g50
sg51
F0.10459999740123749
sg52
F1504104189.851913
ssg53
Nsg54
Nsa(dp1235
g11
g12
(S'\x07\xe1\x08\x1e\x0e+\x1b\x0c\x7f8'
p1236
tp1237
Rp1238
sg16
g12
(S'\x07\xe1\x08\x1e\x0e+\t\x0e\xc5@'
p1239
tp1240
Rp1241
sg20
(dp1242
g22
I60
sg23
(dp1243
g25
(lp1244
I60
asg27
(lp1245
I60
asg29
(lp1246
I60
asg31
(lp1247
I60
assg33
(g34
g35
tp1248
sg37
(dp1249
g25
(lp1250
F-16.45314268957801
asg27
(lp1251
F571.0
asg29
(lp1252
F13.0
asg31
(lp1253
F349.0
assg43
Nssg44
I2
sg22
I60
sg45
Nsg46
I0
sg47
(dp1254
g49
g50
sg51
F0.08739999681711197
sg52
F1504104207.716448
ssg53
Nsg54
Nsa(dp1255
g11
g12
(S"\x07\xe1\x08\x1e\x0e+'\t\xac\x90"
p1256
tp1257
Rp1258
sg16
g12
(S'\x07\xe1\x08\x1e\x0e+\x1b\x0c\xc9p'
p1259
tp1260
Rp1261
sg20
(dp1262
g22
I61
sg23
(dp1263
g25
(lp1264
I61
asg27
(lp1265
I61
asg29
(lp1266
I61
asg31
(lp1267
I61
assg33
(g34
g35
tp1268
sg37
(dp1269
g25
(lp1270
F-17.762052050932752
asg27
(lp1271
F311.0
asg29
(lp1272
F8.0
asg31
(lp1273
F57.0
assg43
Nssg44
I2
sg22
I61
sg45
Nsg46
I0
sg47
(dp1274
g49
g50
sg51
F0.11299999058246613
sg52
F1504104219.522446
ssg53
Nsg54
Nsa(dp1275
g11
g12
(S'\x07\xe1\x08\x1e\x0e+6\x02.\x98'
p1276
tp1277
Rp1278
sg16
g12
(S"\x07\xe1\x08\x1e\x0e+'\t\xf6\xc8"
p1279
tp1280
Rp1281
sg20
(dp1282
g22
I62
sg23
(dp1283
g25
(lp1284
I62
asg27
(lp1285
I62
asg29
(lp1286
I62
asg31
(lp1287
I62
assg33
(g34
g35
tp1288
sg37
(dp1289
g25
(lp1290
F-18.342649232428453
asg27
(lp1291
F708.0
asg29
(lp1292
F10.0
asg31
(lp1293
F287.0
assg43
Nssg44
I2
sg22
I62
sg45
Nsg46
I0
sg47
(dp1294
g49
g50
sg51
F0.11399999260902405
sg52
F1504104234.020139
ssg53
Nsg54
Nsa(dp1295
g11
g12
(S'\x07\xe1\x08\x1e\x0e,\x0b\x05\x01@'
p1296
tp1297
Rp1298
sg16
g12
(S'\x07\xe1\x08\x1e\x0e+6\x02x\xd0'
p1299
tp1300
Rp1301
sg20
(dp1302
g22
I63
sg23
(dp1303
g25
(lp1304
I63
asg27
(lp1305
I63
asg29
(lp1306
I63
asg31
(lp1307
I63
assg33
(g34
g35
tp1308
sg37
(dp1309
g25
(lp1310
F-5.5592802702298165
asg27
(lp1311
F780.0
asg29
(lp1312
F12.0
asg31
(lp1313
F190.0
assg43
Nssg44
I2
sg22
I63
sg45
Nsg46
I0
sg47
(dp1314
g49
g50
sg51
F0.965599775314331
sg52
F1504104251.211222
ssg53
Nsg54
Nsa(dp1315
g11
g12
(S'\x07\xe1\x08\x1e\x0e,\x15\x00\xb3\xb0'
p1316
tp1317
Rp1318
sg16
g12
(S'\x07\xe1\x08\x1e\x0e,\x0b\x05O`'
p1319
tp1320
Rp1321
sg20
(dp1322
g22
I64
sg23
(dp1323
g25
(lp1324
I64
asg27
(lp1325
I64
asg29
(lp1326
I64
asg31
(lp1327
I64
assg33
(g34
g35
tp1328
sg37
(dp1329
g25
(lp1330
F-13.420757702161815
asg27
(lp1331
F344.0
asg29
(lp1332
F6.0
asg31
(lp1333
F230.0
assg43
Nssg44
I2
sg22
I64
sg45
Nsg46
I0
sg47
(dp1334
g49
g50
sg51
F0.13079999387264252
sg52
F1504104260.920563
ssg53
Nsg54
Nsa(dp1335
g11
g12
(S'\x07\xe1\x08\x1e\x0e,\x1d\x0c\xd5('
p1336
tp1337
Rp1338
sg16
g12
(S'\x07\xe1\x08\x1e\x0e,\x15\x01\t\xa0'
p1339
tp1340
Rp1341
sg20
(dp1342
g22
I65
sg23
(dp1343
g25
(lp1344
I65
asg27
(lp1345
I65
asg29
(lp1346
I65
asg31
(lp1347
I65
assg33
(g34
g35
tp1348
sg37
(dp1349
g25
(lp1350
F-14.133677775746023
asg27
(lp1351
F226.0
asg29
(lp1352
F5.0
asg31
(lp1353
F98.0
assg43
Nssg44
I2
sg22
I65
sg45
Nsg46
I0
sg47
(dp1354
g49
g50
sg51
F0.10399998724460602
sg52
F1504104269.726671
ssg53
Nsg54
Nsa(dp1355
g11
g12
(S'\x07\xe1\x08\x1e\x0e,)\x03(\x98'
p1356
tp1357
Rp1358
sg16
g12
(S'\x07\xe1\x08\x1e\x0e,\x1d\r#H'
p1359
tp1360
Rp1361
sg20
(dp1362
g22
I66
sg23
(dp1363
g25
(lp1364
I66
asg27
(lp1365
I66
asg29
(lp1366
I66
asg31
(lp1367
I66
assg33
(g34
g35
tp1368
sg37
(dp1369
g25
(lp1370
F-15.339825414548368
asg27
(lp1371
F481.0
asg29
(lp1372
F7.0
asg31
(lp1373
F32.0
assg43
Nssg44
I2
sg22
I66
sg45
Nsg46
I0
sg47
(dp1374
g49
g50
sg51
F0.08779999613761902
sg52
F1504104281.091548
ssg53
Nsg54
Nsa(dp1375
g11
g12
(S'\x07\xe1\x08\x1e\x0e,:\t\xf6\xc8'
p1376
tp1377
Rp1378
sg16
g12
(S'\x07\xe1\x08\x1e\x0e,)\x03v\xb8'
p1379
tp1380
Rp1381
sg20
(dp1382
g22
I67
sg23
(dp1383
g25
(lp1384
I67
asg27
(lp1385
I67
asg29
(lp1386
I67
asg31
(lp1387
I67
assg33
(g34
g35
tp1388
sg37
(dp1389
g25
(lp1390
F-16.811350644500873
asg27
(lp1391
F508.0
asg29
(lp1392
F11.0
asg31
(lp1393
F253.0
assg43
Nssg44
I2
sg22
I67
sg45
Nsg46
I0
sg47
(dp1394
g49
g50
sg51
F0.15860000252723694
sg52
F1504104298.513772
ssg53
Nsg54
Nsa(dp1395
g11
g12
(S'\x07\xe1\x08\x1e\x0e-\r\x04\xd2`'
p1396
tp1397
Rp1398
sg16
g12
(S'\x07\xe1\x08\x1e\x0e,:\nD\xe8'
p1399
tp1400
Rp1401
sg20
(dp1402
g22
I68
sg23
(dp1403
g25
(lp1404
I68
asg27
(lp1405
I68
asg29
(lp1406
I68
asg31
(lp1407
I68
assg33
(g34
g35
tp1408
sg37
(dp1409
g25
(lp1410
F-16.1267688360956
asg27
(lp1411
F682.0
asg29
(lp1412
F9.0
asg31
(lp1413
F162.0
assg43
Nssg44
I2
sg22
I68
sg45
Nsg46
I0
sg47
(dp1414
g49
g50
sg51
F0.09179999679327011
sg52
F1504104313.198382
ssg53
Nsg54
Nsa(dp1415
g11
g12
(S'\x07\xe1\x08\x1e\x0e-\x19\x07 8'
p1416
tp1417
Rp1418
sg16
g12
(S'\x07\xe1\x08\x1e\x0e-\r\x05 \x80'
p1419
tp1420
Rp1421
sg20
(dp1422
g22
I69
sg23
(dp1423
g25
(lp1424
I69
asg27
(lp1425
I69
asg29
(lp1426
I69
asg31
(lp1427
I69
assg33
(g34
g35
tp1428
sg37
(dp1429
g25
(lp1430
F-14.872497866466153
asg27
(lp1431
F622.0
asg29
(lp1432
F7.0
asg31
(lp1433
F126.0
assg43
Nssg44
I2
sg22
I69
sg45
Nsg46
I0
sg47
(dp1434
g49
g50
sg51
F0.0811999961733818
sg52
F1504104325.319879
ssg53
Nsg54
NsasS'_exp_key'
p1435
NsS'_dynamic_trials'
p1436
(lp1437
g10
ag55
ag75
ag95
ag115
ag135
ag155
ag175
ag195
ag215
ag235
ag255
ag275
ag295
ag315
ag335
ag355
ag375
ag395
ag415
ag435
ag455
ag475
ag495
ag515
ag535
ag555
ag575
ag595
ag615
ag635
ag655
ag675
ag695
ag715
ag735
ag755
ag775
ag795
ag815
ag835
ag855
ag875
ag895
ag915
ag935
ag955
ag975
ag995
ag1015
ag1035
ag1055
ag1075
ag1095
ag1115
ag1135
ag1155
ag1175
ag1195
ag1215
ag1235
ag1255
ag1275
ag1295
ag1315
ag1335
ag1355
ag1375
ag1395
ag1415
asS'_ids'
p1438
c__builtin__
set
p1439
((lp1440
I0
aI1
aI2
aI3
aI4
aI5
aI6
aI7
aI8
aI9
aI10
aI11
aI12
aI13
aI14
aI15
aI16
aI17
aI18
aI19
aI20
aI21
aI22
aI23
aI24
aI25
aI26
aI27
aI28
aI29
aI30
aI31
aI32
aI33
aI34
aI35
aI36
aI37
aI38
aI39
aI40
aI41
aI42
aI43
aI44
aI45
aI46
aI47
aI48
aI49
aI50
aI51
aI52
aI53
aI54
aI55
aI56
aI57
aI58
aI59
aI60
aI61
aI62
aI63
aI64
aI65
aI66
aI67
aI68
aI69
atp1441
Rp1442
sb.