ccopy_reg
_reconstructor
p0
(chyperopt.base
Trials
p1
c__builtin__
object
p2
Ntp3
Rp4
(dp5
S'attachments'
p6
(dp7
sS'_trials'
p8
(lp9
(dp10
S'refresh_time'
p11
cdatetime
datetime
p12
(S'\x07\xe1\x08\x1e\x0f\x00\x18\r\xb3\xd0'
p13
tp14
Rp15
sS'book_time'
p16
g12
(S'\x07\xe1\x08\x1e\x0f\x00\x01\x0c\xb2\x00'
p17
tp18
Rp19
sS'misc'
p20
(dp21
S'tid'
p22
I0
sS'idxs'
p23
(dp24
S'llr'
p25
(lp26
I0
asS'nh1'
p27
(lp28
I0
asS'eps'
p29
(lp30
I0
asS'nh2'
p31
(lp32
I0
assS'cmd'
p33
(S'domain_attachment'
p34
S'FMinIter_Domain'
p35
tp36
sS'vals'
p37
(dp38
g25
(lp39
F-3.3722073111104027
asg27
(lp40
F281.0
asg29
(lp41
F17.0
asg31
(lp42
F759.0
assS'workdir'
p43
NssS'state'
p44
I2
sg22
I0
sS'exp_key'
p45
NsS'version'
p46
I0
sS'result'
p47
(dp48
S'status'
p49
S'ok'
p50
sS'loss'
p51
F0.8946000039577484
sS'eval_time'
p52
F1504105224.896693
ssS'owner'
p53
NsS'spec'
p54
Nsa(dp55
g11
g12
(S"\x07\xe1\x08\x1e\x0f\x00'\x00\x03\xe8"
p56
tp57
Rp58
sg16
g12
(S'\x07\xe1\x08\x1e\x0f\x00\x18\r\xbf\x88'
p59
tp60
Rp61
sg20
(dp62
g22
I1
sg23
(dp63
g25
(lp64
I1
asg27
(lp65
I1
asg29
(lp66
I1
asg31
(lp67
I1
assg33
(g34
g35
tp68
sg37
(dp69
g25
(lp70
F-6.9879416913715495
asg27
(lp71
F486.0
asg29
(lp72
F12.0
asg31
(lp73
F560.0
assg43
Nssg44
I2
sg22
I1
sg45
Nsg46
I0
sg47
(dp74
g49
g50
sg51
F0.041200220584869385
sg52
F1504105238.998166
ssg53
Nsg54
Nsa(dp75
g11
g12
(S'\x07\xe1\x08\x1e\x0f\x01\x00\r\xe2\xb0'
p76
tp77
Rp78
sg16
g12
(S"\x07\xe1\x08\x1e\x0f\x00'\x00\x0f\xa0"
p79
tp80
Rp81
sg20
(dp82
g22
I2
sg23
(dp83
g25
(lp84
I2
asg27
(lp85
I2
asg29
(lp86
I2
asg31
(lp87
I2
assg33
(g34
g35
tp88
sg37
(dp89
g25
(lp90
F-10.910343738385654
asg27
(lp91
F108.0
asg29
(lp92
F20.0
asg31
(lp93
F120.0
assg43
Nssg44
I2
sg22
I2
sg45
Nsg46
I0
sg47
(dp94
g49
g50
sg51
F0.33920013904571533
sg52
F1504105260.903304
ssg53
Nsg54
Nsa(dp95
g11
g12
(S'\x07\xe1\x08\x1e\x0f\x01\x17\x05\x14\xc8'
p96
tp97
Rp98
sg16
g12
(S'\x07\xe1\x08\x1e\x0f\x01\x00\r\xf68'
p99
tp100
Rp101
sg20
(dp102
g22
I3
sg23
(dp103
g25
(lp104
I3
asg27
(lp105
I3
asg29
(lp106
I3
asg31
(lp107
I3
assg33
(g34
g35
tp108
sg37
(dp109
g25
(lp110
F-8.180766885447314
asg27
(lp111
F303.0
asg29
(lp112
F20.0
asg31
(lp113
F348.0
assg43
Nssg44
I2
sg22
I3
sg45
Nsg46
I0
sg47
(dp114
g49
g50
sg51
F0.06400030851364136
sg52
F1504105283.32838
ssg53
Nsg54
Nsa(dp115
g11
g12
(S'\x07\xe1\x08\x1e\x0f\x01.\x02"\xe0'
p116
tp117
Rp118
sg16
g12
(S'\x07\xe1\x08\x1e\x0f\x01\x17\x05$h'
p119
tp120
Rp121
sg20
(dp122
g22
I4
sg23
(dp123
g25
(lp124
I4
asg27
(lp125
I4
asg29
(lp126
I4
asg31
(lp127
I4
assg33
(g34
g35
tp128
sg37
(dp129
g25
(lp130
F-4.192245781490653
asg27
(lp131
F350.0
asg29
(lp132
F20.0
asg31
(lp133
F213.0
assg43
Nssg44
I2
sg22
I4
sg45
Nsg46
I0
sg47
(dp134
g49
g50
sg51
F0.04040020704269409
sg52
F1504105306.132608
ssg53
Nsg54
Nsa(dp135
g11
g12
(S'\x07\xe1\x08\x1e\x0f\x01;\x02U\xa8'
p136
tp137
Rp138
sg16
g12
(S'\x07\xe1\x08\x1e\x0f\x01.\x02:P'
p139
tp140
Rp141
sg20
(dp142
g22
I5
sg23
(dp143
g25
(lp144
I5
asg27
(lp145
I5
asg29
(lp146
I5
asg31
(lp147
I5
assg33
(g34
g35
tp148
sg37
(dp149
g25
(lp150
F-17.341576611276896
asg27
(lp151
F323.0
asg29
(lp152
F11.0
asg31
(lp153
F340.0
assg43
Nssg44
I2
sg22
I5
sg45
Nsg46
I0
sg47
(dp154
g49
g50
sg51
F0.8956000059843063
sg52
F1504105319.143691
ssg53
Nsg54
Nsa(dp155
g11
g12
(S'\x07\xe1\x08\x1e\x0f\x02\x17\x08\x83\xb0'
p156
tp157
Rp158
sg16
g12
(S'\x07\xe1\x08\x1e\x0f\x01;\x02a`'
p159
tp160
Rp161
sg20
(dp162
g22
I6
sg23
(dp163
g25
(lp164
I6
asg27
(lp165
I6
asg29
(lp166
I6
asg31
(lp167
I6
assg33
(g34
g35
tp168
sg37
(dp169
g25
(lp170
F-16.384374743593288
asg27
(lp171
F331.0
asg29
(lp172
F20.0
asg31
(lp173
F493.0
assg43
Nssg44
I2
sg22
I6
sg45
Nsg46
I0
sg47
(dp174
g49
g50
sg51
F0.9211999997496605
sg52
F1504105343.545256
ssg53
Nsg54
Nsa(dp175
g11
g12
(S'\x07\xe1\x08\x1e\x0f\x02(\x01\x05\xb8'
p176
tp177
Rp178
sg16
g12
(S'\x07\xe1\x08\x1e\x0f\x02\x17\x08\x93P'
p179
tp180
Rp181
sg20
(dp182
g22
I7
sg23
(dp183
g25
(lp184
I7
asg27
(lp185
I7
asg29
(lp186
I7
asg31
(lp187
I7
assg33
(g34
g35
tp188
sg37
(dp189
g25
(lp190
F-18.308890763705435
asg27
(lp191
F396.0
asg29
(lp192
F14.0
asg31
(lp193
F289.0
assg43
Nssg44
I2
sg22
I7
sg45
Nsg46
I0
sg47
(dp194
g49
g50
sg51
F0.8928000032901764
sg52
F1504105360.058561
ssg53
Nsg54
Nsa(dp195
g11
g12
(S'\x07\xe1\x08\x1e\x0f\x02;\x08\xf8\xe0'
p196
tp197
Rp198
sg16
g12
(S'\x07\xe1\x08\x1e\x0f\x02(\x01\x11p'
p199
tp200
Rp201
sg20
(dp202
g22
I8
sg23
(dp203
g25
(lp204
I8
asg27
(lp205
I8
asg29
(lp206
I8
asg31
(lp207
I8
assg33
(g34
g35
tp208
sg37
(dp209
g25
(lp210
F-3.1490521901406865
asg27
(lp211
F369.0
asg29
(lp212
F17.0
asg31
(lp213
F118.0
assg43
Nssg44
I2
sg22
I8
sg45
Nsg46
I0
sg47
(dp214
g49
g50
sg51
F0.9014000073075294
sg52
F1504105379.578725
ssg53
Nsg54
Nsa(dp215
g11
g12
(S'\x07\xe1\x08\x1e\x0f\x03\x13\x08w\xf8'
p216
tp217
Rp218
sg16
g12
(S'\x07\xe1\x08\x1e\x0f\x02;\t\x04\x98'
p219
tp220
Rp221
sg20
(dp222
g22
I9
sg23
(dp223
g25
(lp224
I9
asg27
(lp225
I9
asg29
(lp226
I9
asg31
(lp227
I9
assg33
(g34
g35
tp228
sg37
(dp229
g25
(lp230
F-14.051085931683586
asg27
(lp231
F729.0
asg29
(lp232
F16.0
asg31
(lp233
F533.0
assg43
Nssg44
I2
sg22
I9
sg45
Nsg46
I0
sg47
(dp234
g49
g50
sg51
F0.8918000012636185
sg52
F1504105399.541464
ssg53
Nsg54
Nsa(dp235
g11
g12
(S'\x07\xe1\x08\x1e\x0f\x03\x1e\r\x81\x08'
p236
tp237
Rp238
sg16
g12
(S'\x07\xe1\x08\x1e\x0f\x03\x13\x08\x9b '
p239
tp240
Rp241
sg20
(dp242
g22
I10
sg23
(dp243
g25
(lp244
I10
asg27
(lp245
I10
asg29
(lp246
I10
asg31
(lp247
I10
assg33
(g34
g35
tp248
sg37
(dp249
g25
(lp250
F-4.876803727944921
asg27
(lp251
F117.0
asg29
(lp252
F10.0
asg31
(lp253
F369.0
assg43
Nssg44
I2
sg22
I10
sg45
Nsg46
I0
sg47
(dp254
g49
g50
sg51
F0.03540027141571045
sg52
F1504105410.868386
ssg53
Nsg54
Nsa(dp255
g11
g12
(S'\x07\xe1\x08\x1e\x0f\x03$\r\x0f\xc0'
p256
tp257
Rp258
sg16
g12
(S'\x07\xe1\x08\x1e\x0f\x03\x1e\r\x8c\xc0'
p259
tp260
Rp261
sg20
(dp262
g22
I11
sg23
(dp263
g25
(lp264
I11
asg27
(lp265
I11
asg29
(lp266
I11
asg31
(lp267
I11
assg33
(g34
g35
tp268
sg37
(dp269
g25
(lp270
F-10.079458028326393
asg27
(lp271
F234.0
asg29
(lp272
F5.0
asg31
(lp273
F484.0
assg43
Nssg44
I2
sg22
I11
sg45
Nsg46
I0
sg47
(dp274
g49
g50
sg51
F0.28740012645721436
sg52
F1504105416.843432
ssg53
Nsg54
Nsa(dp275
g11
g12
(S'\x07\xe1\x08\x1e\x0f\x036\x0f\x0b\x90'
p276
tp277
Rp278
sg16
g12
(S'\x07\xe1\x08\x1e\x0f\x03$\r\x1bx'
p279
tp280
Rp281
sg20
(dp282
g22
I12
sg23
(dp283
g25
(lp284
I12
asg27
(lp285
I12
asg29
(lp286
I12
asg31
(lp287
I12
assg33
(g34
g35
tp288
sg37
(dp289
g25
(lp290
F-15.254752405044089
asg27
(lp291
F403.0
asg29
(lp292
F15.0
asg31
(lp293
F657.0
assg43
Nssg44
I2
sg22
I12
sg45
Nsg46
I0
sg47
(dp294
g49
g50
sg51
F0.873400017619133
sg52
F1504105434.971343
ssg53
Nsg54
Nsa(dp295
g11
g12
(S'\x07\xe1\x08\x1e\x0f\x04\x07\x06|('
p296
tp297
Rp298
sg16
g12
(S'\x07\xe1\x08\x1e\x0f\x036\x0f\x1f\x18'
p299
tp300
Rp301
sg20
(dp302
g22
I13
sg23
(dp303
g25
(lp304
I13
asg27
(lp305
I13
asg29
(lp306
I13
asg31
(lp307
I13
assg33
(g34
g35
tp308
sg37
(dp309
g25
(lp310
F-1.1278248286323382
asg27
(lp311
F683.0
asg29
(lp312
F10.0
asg31
(lp313
F418.0
assg43
Nssg44
I2
sg22
I13
sg45
Nsg46
I0
sg47
(dp314
g49
g50
sg51
F0.8894000053405762
sg52
F1504105447.409612
ssg53
Nsg54
Nsa(dp315
g11
g12
(S'\x07\xe1\x08\x1e\x0f\x04\x0e\x0f\x0b\x90'
p316
tp317
Rp318
sg16
g12
(S'\x07\xe1\x08\x1e\x0f\x04\x07\x06\x87\xe0'
p319
tp320
Rp321
sg20
(dp322
g22
I14
sg23
(dp323
g25
(lp324
I14
asg27
(lp325
I14
asg29
(lp326
I14
asg31
(lp327
I14
assg33
(g34
g35
tp328
sg37
(dp329
g25
(lp330
F-5.759422050412358
asg27
(lp331
F636.0
asg29
(lp332
F6.0
asg31
(lp333
F24.0
assg43
Nssg44
I2
sg22
I14
sg45
Nsg46
I0
sg47
(dp334
g49
g50
sg51
F0.3600000739097595
sg52
F1504105454.969465
ssg53
Nsg54
Nsa(dp335
g11
g12
(S'\x07\xe1\x08\x1e\x0f\x04&\x03\x1c\xe0'
p336
tp337
Rp338
sg16
g12
(S'\x07\xe1\x08\x1e\x0f\x04\x0e\x0f\x1b0'
p339
tp340
Rp341
sg20
(dp342
g22
I15
sg23
(dp343
g25
(lp344
I15
asg27
(lp345
I15
asg29
(lp346
I15
asg31
(lp347
I15
assg33
(g34
g35
tp348
sg37
(dp349
g25
(lp350
F-16.88597981961036
asg27
(lp351
F572.0
asg29
(lp352
F20.0
asg31
(lp353
F439.0
assg43
Nssg44
I2
sg22
I15
sg45
Nsg46
I0
sg47
(dp354
g49
g50
sg51
F0.9182000011205673
sg52
F1504105478.187372
ssg53
Nsg54
Nsa(dp355
g11
g12
(S'\x07\xe1\x08\x1e\x0f\x046\x046 '
p356
tp357
Rp358
sg16
g12
(S'\x07\xe1\x08\x1e\x0f\x04&\x034P'
p359
tp360
Rp361
sg20
(dp362
g22
I16
sg23
(dp363
g25
(lp364
I16
asg27
(lp365
I16
asg29
(lp366
I16
asg31
(lp367
I16
assg33
(g34
g35
tp368
sg37
(dp369
g25
(lp370
F-3.439313219168655
asg27
(lp371
F608.0
asg29
(lp372
F14.0
asg31
(lp373
F246.0
assg43
Nssg44
I2
sg22
I16
sg45
Nsg46
I0
sg47
(dp374
g49
g50
sg51
F0.8872000128030777
sg52
F1504105494.255665
ssg53
Nsg54
Nsa(dp375
g11
g12
(S'\x07\xe1\x08\x1e\x0f\x05\t\n\xf4\xb0'
p376
tp377
Rp378
sg16
g12
(S'\x07\xe1\x08\x1e\x0f\x046\x04A\xd8'
p379
tp380
Rp381
sg20
(dp382
g22
I17
sg23
(dp383
g25
(lp384
I17
asg27
(lp385
I17
asg29
(lp386
I17
asg31
(lp387
I17
assg33
(g34
g35
tp388
sg37
(dp389
g25
(lp390
F-14.659489606003845
asg27
(lp391
F81.0
asg29
(lp392
F14.0
asg31
(lp393
F191.0
assg43
Nssg44
I2
sg22
I17
sg45
Nsg46
I0
sg47
(dp394
g49
g50
sg51
F0.862199991941452
sg52
F1504105509.696332
ssg53
Nsg54
Nsa(dp395
g11
g12
(S'\x07\xe1\x08\x1e\x0f\x05\x1b\x08p('
p396
tp397
Rp398
sg16
g12
(S'\x07\xe1\x08\x1e\x0f\x05\t\x0b\x00h'
p399
tp400
Rp401
sg20
(dp402
g22
I18
sg23
(dp403
g25
(lp404
I18
asg27
(lp405
I18
asg29
(lp406
I18
asg31
(lp407
I18
assg33
(g34
g35
tp408
sg37
(dp409
g25
(lp410
F-12.669459435683285
asg27
(lp411
F671.0
asg29
(lp412
F15.0
asg31
(lp413
F406.0
assg43
Nssg44
I2
sg22
I18
sg45
Nsg46
I0
sg47
(dp414
g49
g50
sg51
F0.5642000436782837
sg52
F1504105527.528603
ssg53
Nsg54
Nsa(dp415
g11
g12
(S'\x07\xe1\x08\x1e\x0f\x05*\x03,\x80'
p416
tp417
Rp418
sg16
g12
(S'\x07\xe1\x08\x1e\x0f\x05\x1b\t\xeb\x10'
p419
tp420
Rp421
sg20
(dp422
g22
I19
sg23
(dp423
g25
(lp424
I19
asg27
(lp425
I19
asg29
(lp426
I19
asg31
(lp427
I19
assg33
(g34
g35
tp428
sg37
(dp429
g25
(lp430
F-15.820932227744564
asg27
(lp431
F597.0
asg29
(lp432
F12.0
asg31
(lp433
F151.0
assg43
Nssg44
I2
sg22
I19
sg45
Nsg46
I0
sg47
(dp434
g49
g50
sg51
F0.9306000024080276
sg52
F1504105542.182928
ssg53
Nsg54
Nsa(dp435
g11
g12
(S'\x07\xe1\x08\x1e\x0f\x054\r+\x18'
p436
tp437
Rp438
sg16
g12
(S'\x07\xe1\x08\x1e\x0f\x05*\x04e\x00'
p439
tp440
Rp441
sg20
(dp442
g22
I20
sg23
(dp443
g25
(lp444
I20
asg27
(lp445
I20
asg29
(lp446
I20
asg31
(lp447
I20
assg33
(g34
g35
tp448
sg37
(dp449
g25
(lp450
F-0.8420490255681718
asg27
(lp451
F16.0
asg29
(lp452
F9.0
asg31
(lp453
F31.0
assg43
Nssg44
I2
sg22
I20
sg45
Nsg46
I0
sg47
(dp454
g49
g50
sg51
F0.9024000093340874
sg52
F1504105552.82188
ssg53
Nsg54
Nsa(dp455
g11
g12
(S'\x07\xe1\x08\x1e\x0f\x06\x02\x07\x18h'
p456
tp457
Rp458
sg16
g12
(S'\x07\xe1\x08\x1e\x0f\x054\rV\x10'
p459
tp460
Rp461
sg20
(dp462
g22
I21
sg23
(dp463
g25
(lp464
I21
asg27
(lp465
I21
asg29
(lp466
I21
asg31
(lp467
I21
assg33
(g34
g35
tp468
sg37
(dp469
g25
(lp470
F-5.56088841209202
asg27
(lp471
F185.0
asg29
(lp472
F8.0
asg31
(lp473
F249.0
assg43
Nssg44
I2
sg22
I21
sg45
Nsg46
I0
sg47
(dp474
g49
g50
sg51
F0.0462002158164978
sg52
F1504105562.427143
ssg53
Nsg54
Nsa(dp475
g11
g12
(S'\x07\xe1\x08\x1e\x0f\x06\n\x0c\xe4\xc8'
p476
tp477
Rp478
sg16
g12
(S'\x07\xe1\x08\x1e\x0f\x06\x02\x07K0'
p479
tp480
Rp481
sg20
(dp482
g22
I22
sg23
(dp483
g25
(lp484
I22
asg27
(lp485
I22
asg29
(lp486
I22
asg31
(lp487
I22
assg33
(g34
g35
tp488
sg37
(dp489
g25
(lp490
F-4.75657431565711
asg27
(lp491
F160.0
asg29
(lp492
F7.0
asg31
(lp493
F306.0
assg43
Nssg44
I2
sg22
I22
sg45
Nsg46
I0
sg47
(dp494
g49
g50
sg51
F0.04200023412704468
sg52
F1504105570.789146
ssg53
Nsg54
Nsa(dp495
g11
g12
(S'\x07\xe1\x08\x1e\x0f\x06\x1e\x0e\x92x'
p496
tp497
Rp498
sg16
g12
(S'\x07\xe1\x08\x1e\x0f\x06\n\r>\xa0'
p499
tp500
Rp501
sg20
(dp502
g22
I23
sg23
(dp503
g25
(lp504
I23
asg27
(lp505
I23
asg29
(lp506
I23
asg31
(lp507
I23
assg33
(g34
g35
tp508
sg37
(dp509
g25
(lp510
F-2.108838398674939
asg27
(lp511
F16.0
asg29
(lp512
F18.0
asg31
(lp513
F629.0
assg43
Nssg44
I2
sg22
I23
sg45
Nsg46
I0
sg47
(dp514
g49
g50
sg51
F0.9014000073075294
sg52
F1504105590.923048
ssg53
Nsg54
Nsa(dp515
g11
g12
(S'\x07\xe1\x08\x1e\x0f\x06+\x06\x83\xf8'
p516
tp517
Rp518
sg16
g12
(S'\x07\xe1\x08\x1e\x0f\x06\x1e\x0e\xc1X'
p519
tp520
Rp521
sg20
(dp522
g22
I24
sg23
(dp523
g25
(lp524
I24
asg27
(lp525
I24
asg29
(lp526
I24
asg31
(lp527
I24
assg33
(g34
g35
tp528
sg37
(dp529
g25
(lp530
F-7.984090239349321
asg27
(lp531
F482.0
asg29
(lp532
F10.0
asg31
(lp533
F212.0
assg43
Nssg44
I2
sg22
I24
sg45
Nsg46
I0
sg47
(dp534
g49
g50
sg51
F0.07840025424957275
sg52
F1504105603.392963
ssg53
Nsg54
Nsa(dp535
g11
g12
(S'\x07\xe1\x08\x1e\x0f\x065\x05,8'
p536
tp537
Rp538
sg16
g12
(S'\x07\xe1\x08\x1e\x0f\x06+\x06\xb2\xd8'
p539
tp540
Rp541
sg20
(dp542
g22
I25
sg23
(dp543
g25
(lp544
I25
asg27
(lp545
I25
asg29
(lp546
I25
asg31
(lp547
I25
assg33
(g34
g35
tp548
sg37
(dp549
g25
(lp550
F-4.549508719450794
asg27
(lp551
F488.0
asg29
(lp552
F8.0
asg31
(lp553
F89.0
assg43
Nssg44
I2
sg22
I25
sg45
Nsg46
I0
sg47
(dp554
g49
g50
sg51
F0.13340026140213013
sg52
F1504105613.303472
ssg53
Nsg54
Nsa(dp555
g11
g12
(S'\x07\xe1\x08\x1e\x0f\x07\x00\x00e\x90'
p556
tp557
Rp558
sg16
g12
(S'\x07\xe1\x08\x1e\x0f\x065\x05b\xe8'
p559
tp560
Rp561
sg20
(dp562
g22
I26
sg23
(dp563
g25
(lp564
I26
asg27
(lp565
I26
asg29
(lp566
I26
asg31
(lp567
I26
assg33
(g34
g35
tp568
sg37
(dp569
g25
(lp570
F-7.060483336295244
asg27
(lp571
F240.0
asg29
(lp572
F5.0
asg31
(lp573
F342.0
assg43
Nssg44
I2
sg22
I26
sg45
Nsg46
I0
sg47
(dp574
g49
g50
sg51
F0.07120025157928467
sg52
F1504105619.989934
ssg53
Nsg54
Nsa(dp575
g11
g12
(S'\x07\xe1\x08\x1e\x0f\x07\x0c\x0e\x19`'
p576
tp577
Rp578
sg16
g12
(S'\x07\xe1\x08\x1e\x0f\x07\x00\x00\x98X'
p579
tp580
Rp581
sg20
(dp582
g22
I27
sg23
(dp583
g25
(lp584
I27
asg27
(lp585
I27
asg29
(lp586
I27
asg31
(lp587
I27
assg33
(g34
g35
tp588
sg37
(dp589
g25
(lp590
F-11.498693854699834
asg27
(lp591
F81.0
asg29
(lp592
F11.0
asg31
(lp593
F171.0
assg43
Nssg44
I2
sg22
I27
sg45
Nsg46
I0
sg47
(dp594
g49
g50
sg51
F0.7224000096321106
sg52
F1504105632.887233
ssg53
Nsg54
Nsa(dp595
g11
g12
(S'\x07\xe1\x08\x1e\x0f\x07"\x01\xe0x'
p596
tp597
Rp598
sg16
g12
(S'\x07\xe1\x08\x1e\x0f\x07\x0c\x0eL('
p599
tp600
Rp601
sg20
(dp602
g22
I28
sg23
(dp603
g25
(lp604
I28
asg27
(lp605
I28
asg29
(lp606
I28
asg31
(lp607
I28
assg33
(g34
g35
tp608
sg37
(dp609
g25
(lp610
F-0.35907478754057376
asg27
(lp611
F250.0
asg29
(lp612
F18.0
asg31
(lp613
F75.0
assg43
Nssg44
I2
sg22
I28
sg45
Nsg46
I0
sg47
(dp614
g49
g50
sg51
F0.907600000500679
sg52
F1504105654.083021
ssg53
Nsg54
Nsa(dp615
g11
g12
(S'\x07\xe1\x08\x1e\x0f\x072\x04h\xe8'
p616
tp617
Rp618
sg16
g12
(S'\x07\xe1\x08\x1e\x0f\x07"\x02\x17('
p619
tp620
Rp621
sg20
(dp622
g22
I29
sg23
(dp623
g25
(lp624
I29
asg27
(lp625
I29
asg29
(lp626
I29
asg31
(lp627
I29
assg33
(g34
g35
tp628
sg37
(dp629
g25
(lp630
F-2.586773820407153
asg27
(lp631
F171.0
asg29
(lp632
F13.0
asg31
(lp633
F695.0
assg43
Nssg44
I2
sg22
I29
sg45
Nsg46
I0
sg47
(dp634
g49
g50
sg51
F0.9058000072836876
sg52
F1504105670.241141
ssg53
Nsg54
Nsa(dp635
g11
g12
(S'\x07\xe1\x08\x1e\x0f\x08\x02\x06\x93\x98'
p636
tp637
Rp638
sg16
g12
(S'\x07\xe1\x08\x1e\x0f\x072\x04\xa3\x80'
p639
tp640
Rp641
sg20
(dp642
g22
I30
sg23
(dp643
g25
(lp644
I30
asg27
(lp645
I30
asg29
(lp646
I30
asg31
(lp647
I30
assg33
(g34
g35
tp648
sg37
(dp649
g25
(lp650
F-8.864199578550586
asg27
(lp651
F503.0
asg29
(lp652
F9.0
asg31
(lp653
F565.0
assg43
Nssg44
I2
sg22
I30
sg45
Nsg46
I0
sg47
(dp654
g49
g50
sg51
F0.08500027656555176
sg52
F1504105682.38977
ssg53
Nsg54
Nsa(dp655
g11
g12
(S'\x07\xe1\x08\x1e\x0f\x08\x12\x05?\xc0'
p656
tp657
Rp658
sg16
g12
(S'\x07\xe1\x08\x1e\x0f\x08\x02\x06\xcaH'
p659
tp660
Rp661
sg20
(dp662
g22
I31
sg23
(dp663
g25
(lp664
I31
asg27
(lp665
I31
asg29
(lp666
I31
asg31
(lp667
I31
assg33
(g34
g35
tp668
sg37
(dp669
g25
(lp670
F-6.618957835979558
asg27
(lp671
F130.0
asg29
(lp672
F13.0
asg31
(lp673
F763.0
assg43
Nssg44
I2
sg22
I31
sg45
Nsg46
I0
sg47
(dp674
g49
g50
sg51
F0.048400282859802246
sg52
F1504105698.290864
ssg53
Nsg54
Nsa(dp675
g11
g12
(S'\x07\xe1\x08\x1e\x0f\x08 \x01kH'
p676
tp677
Rp678
sg16
g12
(S'\x07\xe1\x08\x1e\x0f\x08\x12\x05r\x88'
p679
tp680
Rp681
sg20
(dp682
g22
I32
sg23
(dp683
g25
(lp684
I32
asg27
(lp685
I32
asg29
(lp686
I32
asg31
(lp687
I32
assg33
(g34
g35
tp688
sg37
(dp689
g25
(lp690
F-3.7630759138948773
asg27
(lp691
F539.0
asg29
(lp692
F11.0
asg31
(lp693
F366.0
assg43
Nssg44
I2
sg22
I32
sg45
Nsg46
I0
sg47
(dp694
g49
g50
sg51
F0.0728001594543457
sg52
F1504105712.049712
ssg53
Nsg54
Nsa(dp695
g11
g12
(S'\x07\xe1\x08\x1e\x0f\x08)\x02i0'
p696
tp697
Rp698
sg16
g12
(S'\x07\xe1\x08\x1e\x0f\x08 \x01\xa1\xf8'
p699
tp700
Rp701
sg20
(dp702
g22
I33
sg23
(dp703
g25
(lp704
I33
asg27
(lp705
I33
asg29
(lp706
I33
asg31
(lp707
I33
assg33
(g34
g35
tp708
sg37
(dp709
g25
(lp710
F-1.8479605570528688
asg27
(lp711
F36.0
asg29
(lp712
F7.0
asg31
(lp713
F285.0
assg43
Nssg44
I2
sg22
I33
sg45
Nsg46
I0
sg47
(dp714
g49
g50
sg51
F0.8925999999046326
sg52
F1504105721.112735
ssg53
Nsg54
Nsa(dp715
g11
g12
(S'\x07\xe1\x08\x1e\x0f\t\x03\x0co\x98'
p716
tp717
Rp718
sg16
g12
(S'\x07\xe1\x08\x1e\x0f\x08)\x02\x9f\xe0'
p719
tp720
Rp721
sg20
(dp722
g22
I34
sg23
(dp723
g25
(lp724
I34
asg27
(lp725
I34
asg29
(lp726
I34
asg31
(lp727
I34
assg33
(g34
g35
tp728
sg37
(dp729
g25
(lp730
F-6.8861901982395075
asg27
(lp731
F272.0
asg29
(lp732
F19.0
asg31
(lp733
F450.0
assg43
Nssg44
I2
sg22
I34
sg45
Nsg46
I0
sg47
(dp734
g49
g50
sg51
F0.04360020160675049
sg52
F1504105743.760759
ssg53
Nsg54
Nsa(dp735
g11
g12
(S'\x07\xe1\x08\x1e\x0f\t\x17\x01\xb1\x98'
p736
tp737
Rp738
sg16
g12
(S'\x07\xe1\x08\x1e\x0f\t\x03\x0c\xa6H'
p739
tp740
Rp741
sg20
(dp742
g22
I35
sg23
(dp743
g25
(lp744
I35
asg27
(lp745
I35
asg29
(lp746
I35
asg31
(lp747
I35
assg33
(g34
g35
tp748
sg37
(dp749
g25
(lp750
F-10.359172377533866
asg27
(lp751
F439.0
asg29
(lp752
F16.0
asg31
(lp753
F234.0
assg43
Nssg44
I2
sg22
I35
sg45
Nsg46
I0
sg47
(dp754
g49
g50
sg51
F0.1556001901626587
sg52
F1504105763.061062
ssg53
Nsg54
Nsa(dp755
g11
g12
(S'\x07\xe1\x08\x1e\x0f\t%\x04\xed\xb8'
p756
tp757
Rp758
sg16
g12
(S'\x07\xe1\x08\x1e\x0f\t\x17\x01\xec0'
p759
tp760
Rp761
sg20
(dp762
g22
I36
sg23
(dp763
g25
(lp764
I36
asg27
(lp765
I36
asg29
(lp766
I36
asg31
(lp767
I36
assg33
(g34
g35
tp768
sg37
(dp769
g25
(lp770
F-4.605549675294146
asg27
(lp771
F345.0
asg29
(lp772
F12.0
asg31
(lp773
F376.0
assg43
Nssg44
I2
sg22
I36
sg45
Nsg46
I0
sg47
(dp774
g49
g50
sg51
F0.03500032424926758
sg52
F1504105777.252587
ssg53
Nsg54
Nsa(dp775
g11
g12
(S'\x07\xe1\x08\x1e\x0f\t4\x00\x13\x88'
p776
tp777
Rp778
sg16
g12
(S'\x07\xe1\x08\x1e\x0f\t%\x050 '
p779
tp780
Rp781
sg20
(dp782
g22
I37
sg23
(dp783
g25
(lp784
I37
asg27
(lp785
I37
asg29
(lp786
I37
asg31
(lp787
I37
assg33
(g34
g35
tp788
sg37
(dp789
g25
(lp790
F-5.542666896364022
asg27
(lp791
F209.0
asg29
(lp792
F12.0
asg31
(lp793
F577.0
assg43
Nssg44
I2
sg22
I37
sg45
Nsg46
I0
sg47
(dp794
g49
g50
sg51
F0.04080021381378174
sg52
F1504105791.948394
ssg53
Nsg54
Nsa(dp795
g11
g12
(S'\x07\xe1\x08\x1e\x0f\n\x05\x01\xa1\xf8'
p796
tp797
Rp798
sg16
g12
(S'\x07\xe1\x08\x1e\x0f\t4\x00U\xf0'
p799
tp800
Rp801
sg20
(dp802
g22
I38
sg23
(dp803
g25
(lp804
I38
asg27
(lp805
I38
asg29
(lp806
I38
asg31
(lp807
I38
assg33
(g34
g35
tp808
sg37
(dp809
g25
(lp810
F-8.683922354128109
asg27
(lp811
F300.0
asg29
(lp812
F10.0
asg31
(lp813
F382.0
assg43
Nssg44
I2
sg22
I38
sg45
Nsg46
I0
sg47
(dp814
g49
g50
sg51
F0.0908002257347107
sg52
F1504105805.048414
ssg53
Nsg54
Nsa(dp815
g11
g12
(S'\x07\xe1\x08\x1e\x0f\n\x10\x0b\x89 '
p816
tp817
Rp818
sg16
g12
(S'\x07\xe1\x08\x1e\x0f\n\x05\x01\xdc\x90'
p819
tp820
Rp821
sg20
(dp822
g22
I39
sg23
(dp823
g25
(lp824
I39
asg27
(lp825
I39
asg29
(lp826
I39
asg31
(lp827
I39
assg33
(g34
g35
tp828
sg37
(dp829
g25
(lp830
F-0.13390026787712817
asg27
(lp831
F433.0
asg29
(lp832
F9.0
asg31
(lp833
F504.0
assg43
Nssg44
I2
sg22
I39
sg45
Nsg46
I0
sg47
(dp834
g49
g50
sg51
F0.9042000025510788
sg52
F1504105816.697646
ssg53
Nsg54
Nsa(dp835
g11
g12
(S'\x07\xe1\x08\x1e\x0f\n \x0e\x9aH'
p836
tp837
Rp838
sg16
g12
(S'\x07\xe1\x08\x1e\x0f\n\x10\x0b\xc3\xb8'
p839
tp840
Rp841
sg20
(dp842
g22
I40
sg23
(dp843
g25
(lp844
I40
asg27
(lp845
I40
asg29
(lp846
I40
asg31
(lp847
I40
assg33
(g34
g35
tp848
sg37
(dp849
g25
(lp850
F-12.54786871378346
asg27
(lp851
F345.0
asg29
(lp852
F13.0
asg31
(lp853
F314.0
assg43
Nssg44
I2
sg22
I40
sg45
Nsg46
I0
sg47
(dp854
g49
g50
sg51
F0.7354000210762024
sg52
F1504105832.898281
ssg53
Nsg54
Nsa(dp855
g11
g12
(S'\x07\xe1\x08\x1e\x0f\n/\nL\xb8'
p856
tp857
Rp858
sg16
g12
(S'\x07\xe1\x08\x1e\x0f\n \x0e\xd4\xe0'
p859
tp860
Rp861
sg20
(dp862
g22
I41
sg23
(dp863
g25
(lp864
I41
asg27
(lp865
I41
asg29
(lp866
I41
asg31
(lp867
I41
assg33
(g34
g35
tp868
sg37
(dp869
g25
(lp870
F-9.618373999867906
asg27
(lp871
F759.0
asg29
(lp872
F11.0
asg31
(lp873
F454.0
assg43
Nssg44
I2
sg22
I41
sg45
Nsg46
I0
sg47
(dp874
g49
g50
sg51
F0.1072002649307251
sg52
F1504105847.608903
ssg53
Nsg54
Nsa(dp875
g11
g12
(S'\x07\xe1\x08\x1e\x0f\n8\x04YH'
p876
tp877
Rp878
sg16
g12
(S'\x07\xe1\x08\x1e\x0f\n/\n\x8f '
p879
tp880
Rp881
sg20
(dp882
g22
I42
sg23
(dp883
g25
(lp884
I42
asg27
(lp885
I42
asg29
(lp886
I42
asg31
(lp887
I42
assg33
(g34
g35
tp888
sg37
(dp889
g25
(lp890
F-7.826974983742897
asg27
(lp891
F57.0
asg29
(lp892
F6.0
asg31
(lp893
F280.0
assg43
Nssg44
I2
sg22
I42
sg45
Nsg46
I0
sg47
(dp894
g49
g50
sg51
F0.1452001929283142
sg52
F1504105856.206331
ssg53
Nsg54
Nsa(dp895
g11
g12
(S'\x07\xe1\x08\x1e\x0f\x0b\x0e\x06\xdd\xd0'
p896
tp897
Rp898
sg16
g12
(S'\x07\xe1\x08\x1e\x0f\n8\x04\x9b\xb0'
p899
tp900
Rp901
sg20
(dp902
g22
I43
sg23
(dp903
g25
(lp904
I43
asg27
(lp905
I43
asg29
(lp906
I43
asg31
(lp907
I43
assg33
(g34
g35
tp908
sg37
(dp909
g25
(lp910
F-6.133660380342862
asg27
(lp911
F134.0
asg29
(lp912
F15.0
asg31
(lp913
F717.0
assg43
Nssg44
I2
sg22
I43
sg45
Nsg46
I0
sg47
(dp914
g49
g50
sg51
F0.03780019283294678
sg52
F1504105874.375158
ssg53
Nsg54
Nsa(dp915
g11
g12
(S'\x07\xe1\x08\x1e\x0f\x0b\x1e\x07\x99P'
p916
tp917
Rp918
sg16
g12
(S'\x07\xe1\x08\x1e\x0f\x0b\x0e\x07+\xf0'
p919
tp920
Rp921
sg20
(dp922
g22
I44
sg23
(dp923
g25
(lp924
I44
asg27
(lp925
I44
asg29
(lp926
I44
asg31
(lp927
I44
assg33
(g34
g35
tp928
sg37
(dp929
g25
(lp930
F-4.834738155885482
asg27
(lp931
F394.0
asg29
(lp932
F12.0
asg31
(lp933
F613.0
assg43
Nssg44
I2
sg22
I44
sg45
Nsg46
I0
sg47
(dp934
g49
g50
sg51
F0.026400327682495117
sg52
F1504105890.422934
ssg53
Nsg54
Nsa(dp935
g11
g12
(S'\x07\xe1\x08\x1e\x0f\x0b2\x0bB\xd0'
p936
tp937
Rp938
sg16
g12
(S'\x07\xe1\x08\x1e\x0f\x0b\x1e\x07\xd7\xd0'
p939
tp940
Rp941
sg20
(dp942
g22
I45
sg23
(dp943
g25
(lp944
I45
asg27
(lp945
I45
asg29
(lp946
I45
asg31
(lp947
I45
assg33
(g34
g35
tp948
sg37
(dp949
g25
(lp950
F-2.8421258816401087
asg27
(lp951
F389.0
asg29
(lp952
F16.0
asg31
(lp953
F784.0
assg43
Nssg44
I2
sg22
I45
sg45
Nsg46
I0
sg47
(dp954
g49
g50
sg51
F0.9066000133752823
sg52
F1504105910.650308
ssg53
Nsg54
Nsa(dp955
g11
g12
(S'\x07\xe1\x08\x1e\x0f\x0c\x06\x07\xe3\x88'
p956
tp957
Rp958
sg16
g12
(S'\x07\xe1\x08\x1e\x0f\x0b2\x0b\x858'
p959
tp960
Rp961
sg20
(dp962
g22
I46
sg23
(dp963
g25
(lp964
I46
asg27
(lp965
I46
asg29
(lp966
I46
asg31
(lp967
I46
assg33
(g34
g35
tp968
sg37
(dp969
g25
(lp970
F-1.4231161213648624
asg27
(lp971
F450.0
asg29
(lp972
F12.0
asg31
(lp973
F540.0
assg43
Nssg44
I2
sg22
I46
sg45
Nsg46
I0
sg47
(dp974
g49
g50
sg51
F0.8999999985098839
sg52
F1504105926.445701
ssg53
Nsg54
Nsa(dp975
g11
g12
(S'\x07\xe1\x08\x1e\x0f\x0c\x1c\x03\xbd\x08'
p976
tp977
Rp978
sg16
g12
(S'\x07\xe1\x08\x1e\x0f\x0c\x06\x08"\x08'
p979
tp980
Rp981
sg20
(dp982
g22
I47
sg23
(dp983
g25
(lp984
I47
asg27
(lp985
I47
asg29
(lp986
I47
asg31
(lp987
I47
assg33
(g34
g35
tp988
sg37
(dp989
g25
(lp990
F-11.21256011600159
asg27
(lp991
F543.0
asg29
(lp992
F17.0
asg31
(lp993
F647.0
assg43
Nssg44
I2
sg22
I47
sg45
Nsg46
I0
sg47
(dp994
g49
g50
sg51
F0.20420020818710327
sg52
F1504105948.156374
ssg53
Nsg54
Nsa(dp995
g11
g12
(S'\x07\xe1\x08\x1e\x0f\x0c-\n\xd5p'
p996
tp997
Rp998
sg16
g12
(S'\x07\xe1\x08\x1e\x0f\x0c\x1c\x03\xfb\x88'
p999
tp1000
Rp1001
sg20
(dp1002
g22
I48
sg23
(dp1003
g25
(lp1004
I48
asg27
(lp1005
I48
asg29
(lp1006
I48
asg31
(lp1007
I48
assg33
(g34
g35
tp1008
sg37
(dp1009
g25
(lp1010
F-3.7782011274499125
asg27
(lp1011
F302.0
asg29
(lp1012
F14.0
asg31
(lp1013
F596.0
assg43
Nssg44
I2
sg22
I48
sg45
Nsg46
I0
sg47
(dp1014
g49
g50
sg51
F0.049600183963775635
sg52
F1504105965.611732
ssg53
Nsg54
Nsa(dp1015
g11
g12
(S'\x07\xe1\x08\x1e\x0f\r\x00\x05\xf7X'
p1016
tp1017
Rp1018
sg16
g12
(S'\x07\xe1\x08\x1e\x0f\x0c-\x0b#\x90'
p1019
tp1020
Rp1021
sg20
(dp1022
g22
I49
sg23
(dp1023
g25
(lp1024
I49
asg27
(lp1025
I49
asg29
(lp1026
I49
asg31
(lp1027
I49
assg33
(g34
g35
tp1028
sg37
(dp1029
g25
(lp1030
F-5.201805740100618
asg27
(lp1031
F357.0
asg29
(lp1032
F11.0
asg31
(lp1033
F525.0
assg43
Nssg44
I2
sg22
I49
sg45
Nsg46
I0
sg47
(dp1034
g49
g50
sg51
F0.02860027551651001
sg52
F1504105980.291674
ssg53
Nsg54
Nsa(dp1035
g11
g12
(S'\x07\xe1\x08\x1e\x0f\r\x0b\x02i0'
p1036
tp1037
Rp1038
sg16
g12
(S'\x07\xe1\x08\x1e\x0f\r\x00\x06A\x90'
p1039
tp1040
Rp1041
sg20
(dp1042
g22
I50
sg23
(dp1043
g25
(lp1044
I50
asg27
(lp1045
I50
asg29
(lp1046
I50
asg31
(lp1047
I50
assg33
(g34
g35
tp1048
sg37
(dp1049
g25
(lp1050
F-7.733612015807729
asg27
(lp1051
F380.0
asg29
(lp1052
F8.0
asg31
(lp1053
F710.0
assg43
Nssg44
I2
sg22
I50
sg45
Nsg46
I0
sg47
(dp1054
g49
g50
sg51
F0.056800246238708496
sg52
F1504105991.068304
ssg53
Nsg54
Nsa(dp1055
g11
g12
(S'\x07\xe1\x08\x1e\x0f\r\x1e\x01!\x10'
p1056
tp1057
Rp1058
sg16
g12
(S'\x07\xe1\x08\x1e\x0f\r\x0b\x02\xb7P'
p1059
tp1060
Rp1061
sg20
(dp1062
g22
I51
sg23
(dp1063
g25
(lp1064
I51
asg27
(lp1065
I51
asg29
(lp1066
I51
asg31
(lp1067
I51
assg33
(g34
g35
tp1068
sg37
(dp1069
g25
(lp1070
F-13.25276328676917
asg27
(lp1071
F273.0
asg29
(lp1072
F15.0
asg31
(lp1073
F610.0
assg43
Nssg44
I2
sg22
I51
sg45
Nsg46
I0
sg47
(dp1074
g49
g50
sg51
F0.8680000007152557
sg52
F1504106009.989506
ssg53
Nsg54
Nsa(dp1075
g11
g12
(S'\x07\xe1\x08\x1e\x0f\r+\x0c\xa2`'
p1076
tp1077
Rp1078
sg16
g12
(S'\x07\xe1\x08\x1e\x0f\r\x1e\x01cx'
p1079
tp1080
Rp1081
sg20
(dp1082
g22
I52
sg23
(dp1083
g25
(lp1084
I52
asg27
(lp1085
I52
asg29
(lp1086
I52
asg31
(lp1087
I52
assg33
(g34
g35
tp1088
sg37
(dp1089
g25
(lp1090
F-9.478677790042873
asg27
(lp1091
F416.0
asg29
(lp1092
F10.0
asg31
(lp1093
F515.0
assg43
Nssg44
I2
sg22
I52
sg45
Nsg46
I0
sg47
(dp1094
g49
g50
sg51
F0.11140018701553345
sg52
F1504106023.725952
ssg53
Nsg54
Nsa(dp1095
g11
g12
(S'\x07\xe1\x08\x1e\x0f\r;\x08P\xe8'
p1096
tp1097
Rp1098
sg16
g12
(S'\x07\xe1\x08\x1e\x0f\r+\x0c\xf0\x80'
p1099
tp1100
Rp1101
sg20
(dp1102
g22
I53
sg23
(dp1103
g25
(lp1104
I53
asg27
(lp1105
I53
asg29
(lp1106
I53
asg31
(lp1107
I53
assg33
(g34
g35
tp1108
sg37
(dp1109
g25
(lp1110
F-18.311611195115855
asg27
(lp1111
F518.0
asg29
(lp1112
F11.0
asg31
(lp1113
F685.0
assg43
Nssg44
I2
sg22
I53
sg45
Nsg46
I0
sg47
(dp1114
g49
g50
sg51
F0.9123999997973442
sg52
F1504106039.458098
ssg53
Nsg54
Nsa(dp1115
g11
g12
(S'\x07\xe1\x08\x1e\x0f\x0e\x08\x0b\xa0\x90'
p1116
tp1117
Rp1118
sg16
g12
(S'\x07\xe1\x08\x1e\x0f\r;\x08\x93P'
p1119
tp1120
Rp1121
sg20
(dp1122
g22
I54
sg23
(dp1123
g25
(lp1124
I54
asg27
(lp1125
I54
asg29
(lp1126
I54
asg31
(lp1127
I54
assg33
(g34
g35
tp1128
sg37
(dp1129
g25
(lp1130
F-5.209353405449737
asg27
(lp1131
F466.0
asg29
(lp1132
F6.0
asg31
(lp1133
F536.0
assg43
Nssg44
I2
sg22
I54
sg45
Nsg46
I0
sg47
(dp1134
g49
g50
sg51
F0.037200212478637695
sg52
F1504106048.664417
ssg53
Nsg54
Nsa(dp1135
g11
g12
(S'\x07\xe1\x08\x1e\x0f\x0e\x1c\x03\xb58'
p1136
tp1137
Rp1138
sg16
g12
(S'\x07\xe1\x08\x1e\x0f\x0e\x08\x0b\xe6\xe0'
p1139
tp1140
Rp1141
sg20
(dp1142
g22
I55
sg23
(dp1143
g25
(lp1144
I55
asg27
(lp1145
I55
asg29
(lp1146
I55
asg31
(lp1147
I55
assg33
(g34
g35
tp1148
sg37
(dp1149
g25
(lp1150
F-6.146187128839306
asg27
(lp1151
F643.0
asg29
(lp1152
F14.0
asg31
(lp1153
F664.0
assg43
Nssg44
I2
sg22
I55
sg45
Nsg46
I0
sg47
(dp1154
g49
g50
sg51
F0.03280031681060791
sg52
F1504106068.131898
ssg53
Nsg54
Nsa(dp1155
g11
g12
(S"\x07\xe1\x08\x1e\x0f\x0e'\nh\x10"
p1156
tp1157
Rp1158
sg16
g12
(S'\x07\xe1\x08\x1e\x0f\x0e\x1c\x03\xfb\x88'
p1159
tp1160
Rp1161
sg20
(dp1162
g22
I56
sg23
(dp1163
g25
(lp1164
I56
asg27
(lp1165
I56
asg29
(lp1166
I56
asg31
(lp1167
I56
assg33
(g34
g35
tp1168
sg37
(dp1169
g25
(lp1170
F-7.3286189720946595
asg27
(lp1171
F568.0
asg29
(lp1172
F7.0
asg31
(lp1173
F738.0
assg43
Nssg44
I2
sg22
I56
sg45
Nsg46
I0
sg47
(dp1174
g49
g50
sg51
F0.05980026721954346
sg52
F1504106079.585356
ssg53
Nsg54
Nsa(dp1175
g11
g12
(S'\x07\xe1\x08\x1e\x0f\x0e:\n\xd9X'
p1176
tp1177
Rp1178
sg16
g12
(S"\x07\xe1\x08\x1e\x0f\x0e'\n\xaax"
p1179
tp1180
Rp1181
sg20
(dp1182
g22
I57
sg23
(dp1183
g25
(lp1184
I57
asg27
(lp1185
I57
asg29
(lp1186
I57
asg31
(lp1187
I57
assg33
(g34
g35
tp1188
sg37
(dp1189
g25
(lp1190
F-10.55167506808119
asg27
(lp1191
F707.0
asg29
(lp1192
F13.0
asg31
(lp1193
F419.0
assg43
Nssg44
I2
sg22
I57
sg45
Nsg46
I0
sg47
(dp1194
g49
g50
sg51
F0.14740020036697388
sg52
F1504106098.611639
ssg53
Nsg54
Nsa(dp1195
g11
g12
(S'\x07\xe1\x08\x1e\x0f\x0f\x0c\x01\x05\xb8'
p1196
tp1197
Rp1198
sg16
g12
(S'\x07\xe1\x08\x1e\x0f\x0e:\x0b\x1f\xa8'
p1199
tp1200
Rp1201
sg20
(dp1202
g22
I58
sg23
(dp1203
g25
(lp1204
I58
asg27
(lp1205
I58
asg29
(lp1206
I58
asg31
(lp1207
I58
assg33
(g34
g35
tp1208
sg37
(dp1209
g25
(lp1210
F-4.138396815287619
asg27
(lp1211
F213.0
asg29
(lp1212
F9.0
asg31
(lp1213
F476.0
assg43
Nssg44
I2
sg22
I58
sg45
Nsg46
I0
sg47
(dp1214
g49
g50
sg51
F0.03880023956298828
sg52
F1504106111.972415
ssg53
Nsg54
Nsa(dp1215
g11
g12
(S'\x07\xe1\x08\x1e\x0f\x0f\x1b\r\x81\x08'
p1216
tp1217
Rp1218
sg16
g12
(S'\x07\xe1\x08\x1e\x0f\x0f\x0c\x01L\x08'
p1219
tp1220
Rp1221
sg20
(dp1222
g22
I59
sg23
(dp1223
g25
(lp1224
I59
asg27
(lp1225
I59
asg29
(lp1226
I59
asg31
(lp1227
I59
assg33
(g34
g35
tp1228
sg37
(dp1229
g25
(lp1230
F-2.281051570123932
asg27
(lp1231
F353.0
asg29
(lp1232
F11.0
asg31
(lp1233
F608.0
assg43
Nssg44
I2
sg22
I59
sg45
Nsg46
I0
sg47
(dp1234
g49
g50
sg51
F0.9006000086665154
sg52
F1504106127.785677
ssg53
Nsg54
Nsa(dp1235
g11
g12
(S"\x07\xe1\x08\x1e\x0f\x0f'\x0f#\x00"
p1236
tp1237
Rp1238
sg16
g12
(S'\x07\xe1\x08\x1e\x0f\x0f\x1b\r\xc7X'
p1239
tp1240
Rp1241
sg20
(dp1242
g22
I60
sg23
(dp1243
g25
(lp1244
I60
asg27
(lp1245
I60
asg29
(lp1246
I60
asg31
(lp1247
I60
assg33
(g34
g35
tp1248
sg37
(dp1249
g25
(lp1250
F-3.2465972283056193
asg27
(lp1251
F319.0
asg29
(lp1252
F8.0
asg31
(lp1253
F475.0
assg43
Nssg44
I2
sg22
I60
sg45
Nsg46
I0
sg47
(dp1254
g49
g50
sg51
F0.07200026512145996
sg52
F1504106139.86669
ssg53
Nsg54
Nsa(dp1255
g11
g12
(S'\x07\xe1\x08\x1e\x0f\x10\x01\x0b\xea\xc8'
p1256
tp1257
Rp1258
sg16
g12
(S'\x07\xe1\x08\x1e\x0f\x0f(\x00:\x98'
p1259
tp1260
Rp1261
sg20
(dp1262
g22
I61
sg23
(dp1263
g25
(lp1264
I61
asg27
(lp1265
I61
asg29
(lp1266
I61
asg31
(lp1267
I61
assg33
(g34
g35
tp1268
sg37
(dp1269
g25
(lp1270
F-8.645632980131863
asg27
(lp1271
F422.0
asg29
(lp1272
F16.0
asg31
(lp1273
F638.0
assg43
Nssg44
I2
sg22
I61
sg45
Nsg46
I0
sg47
(dp1274
g49
g50
sg51
F0.07200032472610474
sg52
F1504106161.681746
ssg53
Nsg54
Nsa(dp1275
g11
g12
(S'\x07\xe1\x08\x1e\x0f\x10\x17\x00\xa4\x10'
p1276
tp1277
Rp1278
sg16
g12
(S'\x07\xe1\x08\x1e\x0f\x10\x01\x0c5\x00'
p1279
tp1280
Rp1281
sg20
(dp1282
g22
I62
sg23
(dp1283
g25
(lp1284
I62
asg27
(lp1285
I62
asg29
(lp1286
I62
asg31
(lp1287
I62
assg33
(g34
g35
tp1288
sg37
(dp1289
g25
(lp1290
F-12.091064218140577
asg27
(lp1291
F620.0
asg29
(lp1292
F15.0
asg31
(lp1293
F772.0
assg43
Nssg44
I2
sg22
I62
sg45
Nsg46
I0
sg47
(dp1294
g49
g50
sg51
F0.31580018997192383
sg52
F1504106182.937019
ssg53
Nsg54
Nsa(dp1295
g11
g12
(S'\x07\xe1\x08\x1e\x0f\x10.\x06A\x90'
p1296
tp1297
Rp1298
sg16
g12
(S'\x07\xe1\x08\x1e\x0f\x10\x17\x00\xea`'
p1299
tp1300
Rp1301
sg20
(dp1302
g22
I63
sg23
(dp1303
g25
(lp1304
I63
asg27
(lp1305
I63
asg29
(lp1306
I63
asg31
(lp1307
I63
assg33
(g34
g35
tp1308
sg37
(dp1309
g25
(lp1310
F-1.4746469337680619
asg27
(lp1311
F366.0
asg29
(lp1312
F18.0
asg31
(lp1313
F553.0
assg43
Nssg44
I2
sg22
I63
sg45
Nsg46
I0
sg47
(dp1314
g49
g50
sg51
F0.8998000100255013
sg52
F1504106206.298964
ssg53
Nsg54
Nsa(dp1315
g11
g12
(S'\x07\xe1\x08\x1e\x0f\x11\x01\x08\x12h'
p1316
tp1317
Rp1318
sg16
g12
(S'\x07\xe1\x08\x1e\x0f\x10.\x06\x8b\xc8'
p1319
tp1320
Rp1321
sg20
(dp1322
g22
I64
sg23
(dp1323
g25
(lp1324
I64
asg27
(lp1325
I64
asg29
(lp1326
I64
asg31
(lp1327
I64
assg33
(g34
g35
tp1328
sg37
(dp1329
g25
(lp1330
F-6.338589750246483
asg27
(lp1331
F580.0
asg29
(lp1332
F10.0
asg31
(lp1333
F740.0
assg43
Nssg44
I2
sg22
I64
sg45
Nsg46
I0
sg47
(dp1334
g49
g50
sg51
F0.03620028495788574
sg52
F1504106221.416283
ssg53
Nsg54
Nsa(dp1335
g11
g12
(S'\x07\xe1\x08\x1e\x0f\x11\x15\r:\xb8'
p1336
tp1337
Rp1338
sg16
g12
(S'\x07\xe1\x08\x1e\x0f\x11\x01\x08\\\xa0'
p1339
tp1340
Rp1341
sg20
(dp1342
g22
I65
sg23
(dp1343
g25
(lp1344
I65
asg27
(lp1345
I65
asg29
(lp1346
I65
asg31
(lp1347
I65
assg33
(g34
g35
tp1348
sg37
(dp1349
g25
(lp1350
F-0.7256883475572851
asg27
(lp1351
F659.0
asg29
(lp1352
F14.0
asg31
(lp1353
F670.0
assg43
Nssg44
I2
sg22
I65
sg45
Nsg46
I0
sg47
(dp1354
g49
g50
sg51
F0.9072000086307526
sg52
F1504106241.756725
ssg53
Nsg54
Nsa(dp1355
g11
g12
(S'\x07\xe1\x08\x1e\x0f\x11.\x0e\xc5@'
p1356
tp1357
Rp1358
sg16
g12
(S'\x07\xe1\x08\x1e\x0f\x11\x15\r\x88\xd8'
p1359
tp1360
Rp1361
sg20
(dp1362
g22
I66
sg23
(dp1363
g25
(lp1364
I66
asg27
(lp1365
I66
asg29
(lp1366
I66
asg31
(lp1367
I66
assg33
(g34
g35
tp1368
sg37
(dp1369
g25
(lp1370
F-5.952121480639299
asg27
(lp1371
F722.0
asg29
(lp1372
F17.0
asg31
(lp1373
F588.0
assg43
Nssg44
I2
sg22
I66
sg45
Nsg46
I0
sg47
(dp1374
g49
g50
sg51
F0.027600228786468506
sg52
F1504106266.845966
ssg53
Nsg54
Nsa(dp1375
g11
g12
(S'\x07\xe1\x08\x1e\x0f\x12\x0c\x0c\xd1@'
p1376
tp1377
Rp1378
sg16
g12
(S'\x07\xe1\x08\x1e\x0f\x11.\x0f\x1b0'
p1379
tp1380
Rp1381
sg20
(dp1382
g22
I67
sg23
(dp1383
g25
(lp1384
I67
asg27
(lp1385
I67
asg29
(lp1386
I67
asg31
(lp1387
I67
assg33
(g34
g35
tp1388
sg37
(dp1389
g25
(lp1390
F-4.993353548711341
asg27
(lp1391
F782.0
asg29
(lp1392
F17.0
asg31
(lp1393
F584.0
assg43
Nssg44
I2
sg22
I67
sg45
Nsg46
I0
sg47
(dp1394
g49
g50
sg51
F0.027200281620025635
sg52
F1504106292.711482
ssg53
Nsg54
Nsa(dp1395
g11
g12
(S"\x07\xe1\x08\x1e\x0f\x12'\x0e\xad\xd0"
p1396
tp1397
Rp1398
sg16
g12
(S'\x07\xe1\x08\x1e\x0f\x12\x0c\r+\x18'
p1399
tp1400
Rp1401
sg20
(dp1402
g22
I68
sg23
(dp1403
g25
(lp1404
I68
asg27
(lp1405
I68
asg29
(lp1406
I68
asg31
(lp1407
I68
assg33
(g34
g35
tp1408
sg37
(dp1409
g25
(lp1410
F-7.337613902072935
asg27
(lp1411
F749.0
asg29
(lp1412
F19.0
asg31
(lp1413
F580.0
assg43
Nssg44
I2
sg22
I68
sg45
Nsg46
I0
sg47
(dp1414
g49
g50
sg51
F0.039600253105163574
sg52
F1504106319.839843
ssg53
Nsg54
Nsa(dp1415
g11
g12
(S'\x07\xe1\x08\x1e\x0f\x13\x08\x08\x12h'
p1416
tp1417
Rp1418
sg16
g12
(S"\x07\xe1\x08\x1e\x0f\x12'\x0f6\x88"
p1419
tp1420
Rp1421
sg20
(dp1422
g22
I69
sg23
(dp1423
g25
(lp1424
I69
asg27
(lp1425
I69
asg29
(lp1426
I69
asg31
(lp1427
I69
assg33
(g34
g35
tp1428
sg37
(dp1429
g25
(lp1430
F-4.159671751492869
asg27
(lp1431
F777.0
asg29
(lp1432
F19.0
asg31
(lp1433
F617.0
assg43
Nssg44
I2
sg22
I69
sg45
Nsg46
I0
sg47
(dp1434
g49
g50
sg51
F0.07540023326873779
sg52
F1504106348.404082
ssg53
Nsg54
NsasS'_exp_key'
p1435
NsS'_dynamic_trials'
p1436
(lp1437
g10
ag55
ag75
ag95
ag115
ag135
ag155
ag175
ag195
ag215
ag235
ag255
ag275
ag295
ag315
ag335
ag355
ag375
ag395
ag415
ag435
ag455
ag475
ag495
ag515
ag535
ag555
ag575
ag595
ag615
ag635
ag655
ag675
ag695
ag715
ag735
ag755
ag775
ag795
ag815
ag835
ag855
ag875
ag895
ag915
ag935
ag955
ag975
ag995
ag1015
ag1035
ag1055
ag1075
ag1095
ag1115
ag1135
ag1155
ag1175
ag1195
ag1215
ag1235
ag1255
ag1275
ag1295
ag1315
ag1335
ag1355
ag1375
ag1395
ag1415
asS'_ids'
p1438
c__builtin__
set
p1439
((lp1440
I0
aI1
aI2
aI3
aI4
aI5
aI6
aI7
aI8
aI9
aI10
aI11
aI12
aI13
aI14
aI15
aI16
aI17
aI18
aI19
aI20
aI21
aI22
aI23
aI24
aI25
aI26
aI27
aI28
aI29
aI30
aI31
aI32
aI33
aI34
aI35
aI36
aI37
aI38
aI39
aI40
aI41
aI42
aI43
aI44
aI45
aI46
aI47
aI48
aI49
aI50
aI51
aI52
aI53
aI54
aI55
aI56
aI57
aI58
aI59
aI60
aI61
aI62
aI63
aI64
aI65
aI66
aI67
aI68
aI69
atp1441
Rp1442
sb.